	.cpu generic+fp+simd
	.file	"hisi-blk-iosched-ufs-mq.c"
	.text
.Ltext0:
	.cfi_sections	.debug_frame
	.align	2
	.type	ufs_mq_tag_update_depth, %function
ufs_mq_tag_update_depth:
.LFB3148:
	.file 1 "/mnt/disk/jenkins/ci/workspace/chipset_GLK_patch/opensource/component_code/vendor/huawei/extra/build/build_script/kirin_kernel_release/kernel/block/hisi-blk-iosched-ufs-mq.c"
	.loc 1 449 0
	.cfi_startproc
.LVL0:
	.loc 1 451 0
	mov	w0, -22
.LVL1:
	ret
	.cfi_endproc
.LFE3148:
	.size	ufs_mq_tag_update_depth, .-ufs_mq_tag_update_depth
	.align	2
	.type	ufs_mq_async_sched_fifo_init, %function
ufs_mq_async_sched_fifo_init:
.LFB3181:
	.loc 1 1117 0
	.cfi_startproc
.LVL2:
	.loc 1 1118 0
	ldr	x1, [x0,13016]
.LVL3:
	.loc 1 1119 0
	add	x0, x1, 264
.LVL4:
.LBB1586:
.LBB1587:
.LBB1588:
.LBB1589:
.LBB1590:
	.file 2 "/mnt/disk/jenkins/ci/workspace/chipset_GLK_patch/opensource/component_code/vendor/huawei/extra/build/build_script/kirin_kernel_release/kernel/include/linux/compiler.h"
	.loc 2 276 0
	str	x0, [x1,264]
.LBE1590:
.LBE1589:
.LBE1588:
	.file 3 "/mnt/disk/jenkins/ci/workspace/chipset_GLK_patch/opensource/component_code/vendor/huawei/extra/build/build_script/kirin_kernel_release/kernel/include/linux/list.h"
	.loc 3 28 0
	str	x0, [x0,8]
.LBE1587:
.LBE1586:
	.loc 1 1120 0
	ret
	.cfi_endproc
.LFE3181:
	.size	ufs_mq_async_sched_fifo_init, .-ufs_mq_async_sched_fifo_init
	.align	2
	.type	ufs_mq_async_sched_fifo_insert, %function
ufs_mq_async_sched_fifo_insert:
.LFB3182:
	.loc 1 1123 0
	.cfi_startproc
.LVL5:
	.loc 1 1124 0
	ldr	x1, [x1,13016]
.LVL6:
	.loc 1 1125 0
	add	x2, x0, 440
.LBB1591:
.LBB1592:
	.loc 3 92 0
	add	x1, x1, 264
.LVL7:
	ldr	x3, [x1,8]
.LBB1593:
.LBB1594:
	.loc 3 62 0
	str	x2, [x1,8]
	.loc 3 63 0
	str	x1, [x0,440]
.LVL8:
	.loc 3 64 0
	str	x3, [x0,448]
.LBB1595:
.LBB1596:
.LBB1597:
	.loc 2 276 0
	str	x2, [x3]
.LBE1597:
.LBE1596:
.LBE1595:
.LBE1594:
.LBE1593:
.LBE1592:
.LBE1591:
	.loc 1 1126 0
	ret
	.cfi_endproc
.LFE3182:
	.size	ufs_mq_async_sched_fifo_insert, .-ufs_mq_async_sched_fifo_insert
	.align	2
	.type	ufs_mq_async_sched_fifo_seek, %function
ufs_mq_async_sched_fifo_seek:
.LFB3183:
	.loc 1 1129 0
	.cfi_startproc
.LVL9:
	.loc 1 1130 0
	ldr	x0, [x0,13016]
.LVL10:
	.loc 1 1131 0
	add	x2, x0, 264
.LBB1598:
.LBB1599:
	.loc 3 220 0
	ldr	x1, [x0,264]
.LVL11:
	.loc 3 221 0
	cmp	x2, x1
	beq	.L9
.L5:
.LBE1599:
.LBE1598:
.LBB1601:
.LBB1602:
.LBB1603:
.LBB1604:
	.loc 3 119 0
	ldr	x3, [x1]
.LBE1604:
.LBE1603:
.LBE1602:
	.loc 1 1134 0
	sub	x0, x1, #440
.LVL12:
.LBB1617:
.LBB1611:
.LBB1610:
	.loc 3 119 0
	ldr	x2, [x1,8]
.LBB1605:
.LBB1606:
	.loc 3 104 0
	str	x2, [x3,8]
.LBB1607:
.LBB1608:
.LBB1609:
	.loc 2 276 0
	str	x3, [x2]
.LBE1609:
.LBE1608:
.LBE1607:
.LBE1606:
.LBE1605:
.LBE1610:
.LBE1611:
.LBB1612:
.LBB1613:
.LBB1614:
.LBB1615:
.LBB1616:
	str	x1, [x1]
.LBE1616:
.LBE1615:
.LBE1614:
	.loc 3 28 0
	str	x1, [x1,8]
.LBE1613:
.LBE1612:
.LBE1617:
.LBE1601:
	.loc 1 1138 0
	ret
.LVL13:
.L9:
.LBB1618:
.LBB1600:
	.loc 3 221 0 discriminator 1
	ldr	x0, [x0,272]
.LVL14:
	cmp	x2, x0
	bne	.L5
.LBE1600:
.LBE1618:
	.loc 1 1136 0
	mov	x0, 0
	.loc 1 1138 0
	ret
	.cfi_endproc
.LFE3183:
	.size	ufs_mq_async_sched_fifo_seek, .-ufs_mq_async_sched_fifo_seek
	.align	2
	.type	ufs_mq_async_sched_fifo_requeue, %function
ufs_mq_async_sched_fifo_requeue:
.LFB3184:
	.loc 1 1141 0
	.cfi_startproc
.LVL15:
	.loc 1 1142 0
	ldr	x1, [x1,13016]
.LVL16:
	.loc 1 1143 0
	add	x2, x0, 440
.LBB1619:
.LBB1620:
	.loc 3 78 0
	add	x4, x1, 264
	ldr	x3, [x1,264]
.LBB1621:
.LBB1622:
	.loc 3 62 0
	str	x2, [x3,8]
	.loc 3 63 0
	str	x3, [x0,440]
	.loc 3 64 0
	str	x4, [x0,448]
.LBB1623:
.LBB1624:
.LBB1625:
	.loc 2 276 0
	str	x2, [x1,264]
.LBE1625:
.LBE1624:
.LBE1623:
.LBE1622:
.LBE1621:
.LBE1620:
.LBE1619:
	.loc 1 1144 0
	ret
	.cfi_endproc
.LFE3184:
	.size	ufs_mq_async_sched_fifo_requeue, .-ufs_mq_async_sched_fifo_requeue
	.align	2
	.type	ufs_mq_async_sched_fifo_is_empty, %function
ufs_mq_async_sched_fifo_is_empty:
.LFB3186:
	.loc 1 1167 0
	.cfi_startproc
.LVL17:
	.loc 1 1168 0
	ldr	x0, [x0,13016]
.LVL18:
	.loc 1 1169 0
	add	x1, x0, 264
.LBB1626:
.LBB1627:
.LBB1628:
.LBB1629:
.LBB1630:
	.loc 2 247 0 discriminator 5
	ldr	x0, [x0,264]
.LVL19:
.LBE1630:
.LBE1629:
.LBE1628:
	.loc 3 202 0 discriminator 5
	cmp	x1, x0
.LBE1627:
.LBE1626:
	.loc 1 1170 0
	cset	w0, eq
	ret
	.cfi_endproc
.LFE3186:
	.size	ufs_mq_async_sched_fifo_is_empty, .-ufs_mq_async_sched_fifo_is_empty
	.align	2
	.type	ufs_mq_req_alloc_prep, %function
ufs_mq_req_alloc_prep:
.LFB3206:
	.loc 1 1500 0
	.cfi_startproc
.LVL20:
	.loc 1 1500 0
	uxtb	w5, w5
	.loc 1 1501 0 discriminator 2
	orr	x1, x4, 8
.LVL21:
	cmp	w5, wzr
	csel	x4, x1, x4, eq
.LVL22:
	.loc 1 1501 0 is_stmt 0 discriminator 4
	str	x4, [x0,8]
	.loc 1 1503 0 is_stmt 1
	mov	w0, 0
.LVL23:
	ret
	.cfi_endproc
.LFE3206:
	.size	ufs_mq_req_alloc_prep, .-ufs_mq_req_alloc_prep
	.align	2
	.type	ufs_mq_req_init, %function
ufs_mq_req_init:
.LFB3207:
	.loc 1 1507 0
	.cfi_startproc
.LVL24:
	.loc 1 1516 0
	add	x3, x2, 472
	.loc 1 1518 0
	mov	w0, 0
.LVL25:
	.loc 1 1514 0
	str	x1, [x2,280]
	.loc 1 1515 0
	str	xzr, [x2,264]
	.loc 1 1516 0
	str	x3, [x2,472]
	.loc 1 1518 0
	ret
	.cfi_endproc
.LFE3207:
	.size	ufs_mq_req_init, .-ufs_mq_req_init
	.align	2
	.type	ufs_mq_req_deinit, %function
ufs_mq_req_deinit:
.LFB3209:
	.loc 1 1541 0
	.cfi_startproc
.LVL26:
	.loc 1 1546 0
	mov	w0, 0
.LVL27:
	ret
	.cfi_endproc
.LFE3209:
	.size	ufs_mq_req_deinit, .-ufs_mq_req_deinit
	.align	2
	.type	ufs_mq_ctx_put, %function
ufs_mq_ctx_put:
.LFB3213:
	.loc 1 1611 0
	.cfi_startproc
.LVL28:
	.loc 1 1613 0
.LBB1631:
.LBB1632:
.LBB1633:
.LBB1634:
.LBB1635:
	.file 4 "/mnt/disk/jenkins/ci/workspace/chipset_GLK_patch/opensource/component_code/vendor/huawei/extra/build/build_script/kirin_kernel_release/kernel/arch/arm64/include/asm/current.h"
	.loc 4 20 0
#APP
// 20 "/mnt/disk/jenkins/ci/workspace/chipset_GLK_patch/opensource/component_code/vendor/huawei/extra/build/build_script/kirin_kernel_release/kernel/arch/arm64/include/asm/current.h" 1
	mrs x2, sp_el0
// 0 "" 2
.LVL29:
#NO_APP
.LBE1635:
.LBE1634:
.LBE1633:
	.file 5 "/mnt/disk/jenkins/ci/workspace/chipset_GLK_patch/opensource/component_code/vendor/huawei/extra/build/build_script/kirin_kernel_release/kernel/include/asm-generic/preempt.h"
	.loc 5 58 0
	ldr	w1, [x2,24]
.LBE1632:
.LBE1631:
	.loc 1 1617 0
	mov	w0, 0
.LVL30:
.LBB1637:
.LBB1636:
	.loc 5 58 0
	sub	w1, w1, #1
	str	w1, [x2,24]
.LBE1636:
.LBE1637:
	.loc 1 1617 0
	ret
	.cfi_endproc
.LFE3213:
	.size	ufs_mq_ctx_put, .-ufs_mq_ctx_put
	.align	2
	.type	ufs_mq_hctx_get_by_req, %function
ufs_mq_hctx_get_by_req:
.LFB3214:
	.loc 1 1620 0
	.cfi_startproc
.LVL31:
	.loc 1 1620 0
	mov	x3, x0
	.loc 1 1624 0
	mov	w0, 0
.LVL32:
	.loc 1 1621 0
	ldr	x2, [x3,64]
.LVL33:
	.loc 1 1622 0
	ldr	x4, [x3,280]
.LBB1638:
.LBB1639:
	.file 6 "/mnt/disk/jenkins/ci/workspace/chipset_GLK_patch/opensource/component_code/vendor/huawei/extra/build/build_script/kirin_kernel_release/kernel/block/blk-mq.h"
	.loc 6 53 0
	ldr	x3, [x2,288]
.LVL34:
.LBE1639:
.LBE1638:
	.loc 1 1622 0
	ldr	w4, [x4,64]
.LBB1641:
.LBB1640:
	.loc 6 53 0
	ldr	x2, [x2,312]
.LVL35:
	ldr	w3, [x3,w4,sxtw 2]
	ldr	x2, [x2,w3,uxtw 3]
.LBE1640:
.LBE1641:
	.loc 1 1622 0
	str	x2, [x1]
	.loc 1 1624 0
	ret
	.cfi_endproc
.LFE3214:
	.size	ufs_mq_hctx_get_by_req, .-ufs_mq_hctx_get_by_req
	.align	2
	.type	ufs_mq_hctx_free_in_ctx_map, %function
ufs_mq_hctx_free_in_ctx_map:
.LFB3215:
	.loc 1 1627 0
	.cfi_startproc
.LVL36:
	.loc 1 1628 0
	str	xzr, [x1,184]
	.loc 1 1630 0
	mov	w0, 0
.LVL37:
	ret
	.cfi_endproc
.LFE3215:
	.size	ufs_mq_hctx_free_in_ctx_map, .-ufs_mq_hctx_free_in_ctx_map
	.align	2
	.type	ufs_mq_poll_enable, %function
ufs_mq_poll_enable:
.LFB3220:
	.loc 1 1665 0
	.cfi_startproc
.LVL38:
.LBB1642:
.LBB1643:
.LBB1644:
	.file 7 "/mnt/disk/jenkins/ci/workspace/chipset_GLK_patch/opensource/component_code/vendor/huawei/extra/build/build_script/kirin_kernel_release/kernel/include/asm-generic/bitops/non-atomic.h"
	.loc 7 105 0
	adrp	x7, __cpu_online_mask
.LBE1644:
.LBE1643:
.LBE1642:
	.loc 1 1673 0
	mov	w0, 0
.LVL39:
.LBB1647:
.LBB1646:
.LBB1645:
	.loc 7 105 0
	ldr	x4, [x7,#:lo12:__cpu_online_mask]
	ldr	x3, [x7,#:lo12:__cpu_online_mask]
	ldr	x1, [x7,#:lo12:__cpu_online_mask]
.LVL40:
	and	w4, w4, 1
	ldr	x6, [x7,#:lo12:__cpu_online_mask]
	ubfx	x3, x3, 1, 1
	ldr	x5, [x7,#:lo12:__cpu_online_mask]
	add	w3, w3, w4
	ubfx	x1, x1, 2, 1
	ldr	x4, [x7,#:lo12:__cpu_online_mask]
	add	w1, w1, w3
	ubfx	x6, x6, 3, 1
	ldr	x3, [x7,#:lo12:__cpu_online_mask]
	add	w6, w6, w1
	ubfx	x5, x5, 4, 1
	ldr	x1, [x7,#:lo12:__cpu_online_mask]
	add	w5, w5, w6
	ubfx	x4, x4, 5, 1
	add	w4, w4, w5
	ubfx	x3, x3, 6, 1
	add	w3, w3, w4
	ubfx	x1, x1, 7, 1
	add	w1, w1, w3
.LBE1645:
.LBE1646:
.LBE1647:
	.loc 1 1671 0
	cmp	w1, 1
	cset	w1, gt
	strb	w1, [x2]
	.loc 1 1673 0
	ret
	.cfi_endproc
.LFE3220:
	.size	ufs_mq_poll_enable, .-ufs_mq_poll_enable
	.align	2
	.global	blk_mq_tagset_ufs_mq_iosched_enable
	.type	blk_mq_tagset_ufs_mq_iosched_enable, %function
blk_mq_tagset_ufs_mq_iosched_enable:
.LFB3225:
	.loc 1 1825 0
	.cfi_startproc
.LVL41:
	.loc 1 1827 0
	cbnz	w1, .L24
	.loc 1 1830 0
	ldr	x1, [x0,40]
.LVL42:
	add	x0, x0, 16
.LVL43:
	and	x1, x1, -65
	str	x1, [x0,24]
	.loc 1 1831 0
	ret
.LVL44:
.L24:
	.loc 1 1828 0
	add	x0, x0, 16
.LVL45:
	ldr	x1, [x0,24]
.LVL46:
	orr	x1, x1, 64
	str	x1, [x0,24]
	.loc 1 1831 0
	ret
	.cfi_endproc
.LFE3225:
	.size	blk_mq_tagset_ufs_mq_iosched_enable, .-blk_mq_tagset_ufs_mq_iosched_enable
	.align	2
	.type	ufs_mq_status_dump, %function
ufs_mq_status_dump:
.LFB3221:
	.loc 1 1676 0
	.cfi_startproc
.LVL47:
	stp	x29, x30, [sp, -32]!
	.cfi_def_cfa_offset 32
	.cfi_offset 29, -32
	.cfi_offset 30, -24
	add	x29, sp, 0
	.cfi_def_cfa_register 29
	stp	x19, x20, [sp,16]
	.cfi_offset 19, -16
	.cfi_offset 20, -8
	.loc 1 1677 0
	ldr	x19, [x0,13016]
.LVL48:
	.loc 1 1679 0
	cbz	x19, .L25
	mov	x4, x0
.LBB1648:
.LBB1649:
.LBB1650:
	.loc 2 247 0 discriminator 4
	ldr	w2, [x0,1164]
.LVL49:
.LBE1650:
.LBE1649:
.LBE1648:
.LBB1651:
.LBB1652:
.LBB1653:
	ldr	w3, [x0,1168]
.LBE1653:
.LBE1652:
.LBE1651:
	.loc 1 1682 0 discriminator 18
	adrp	x0, .LC0
.LVL50:
	add	x0, x0, :lo12:.LC0
	mov	x20, x1
.LBB1654:
.LBB1655:
.LBB1656:
	.loc 2 247 0 discriminator 4
	ldr	w4, [x4,1172]
.LVL51:
.LBE1656:
.LBE1655:
.LBE1654:
	.loc 1 1682 0 discriminator 18
	bl	printk
.LVL52:
.LBB1657:
.LBB1658:
.LBB1659:
	.loc 2 247 0 discriminator 4
	ldr	w2, [x19,8]
.LBE1659:
.LBE1658:
.LBE1657:
	.loc 1 1685 0 discriminator 18
	adrp	x0, .LC1
.LBB1660:
.LBB1661:
.LBB1662:
	.loc 2 247 0 discriminator 4
	ldr	w3, [x19,12]
.LBE1662:
.LBE1661:
.LBE1660:
	.loc 1 1685 0 discriminator 18
	add	x0, x0, :lo12:.LC1
.LBB1663:
.LBB1664:
.LBB1665:
	.loc 2 247 0 discriminator 4
	ldr	w4, [x19,16]
.LBE1665:
.LBE1664:
.LBE1663:
	.loc 1 1685 0 discriminator 18
	mov	x1, x20
	bl	printk
.LVL53:
.L25:
	.loc 1 1689 0
	ldp	x19, x20, [sp,16]
	.cfi_restore 20
	.cfi_restore 19
.LVL54:
	ldp	x29, x30, [sp], 32
	.cfi_restore 30
	.cfi_restore 29
	.cfi_def_cfa 31, 0
	ret
	.cfi_endproc
.LFE3221:
	.size	ufs_mq_status_dump, .-ufs_mq_status_dump
	.align	2
	.type	ufs_mq_queue_rq, %function
ufs_mq_queue_rq:
.LFB3165:
	.loc 1 755 0
	.cfi_startproc
.LVL55:
	stp	x29, x30, [sp, -48]!
	.cfi_def_cfa_offset 48
	.cfi_offset 29, -48
	.cfi_offset 30, -40
	add	x29, sp, 0
	.cfi_def_cfa_register 29
	stp	x19, x20, [sp,16]
	.cfi_offset 19, -32
	.cfi_offset 20, -24
	.loc 1 755 0
	mov	x19, x0
	mov	x0, x1
.LVL56:
	.loc 1 756 0
	ldr	w5, [x19,84]
	cmp	w5, 1
	bne	.L42
	ldr	x5, [x19,88]
.LBB1666:
.LBB1667:
.LBB1668:
.LBB1669:
	.loc 1 645 0
	tbz	x5, 3, .L33
	.loc 1 646 0
	tbnz	x5, 11, .L43
.LBB1670:
.LBB1671:
	.file 8 "/mnt/disk/jenkins/ci/workspace/chipset_GLK_patch/opensource/component_code/vendor/huawei/extra/build/build_script/kirin_kernel_release/kernel/arch/arm64/include/asm/atomic_ll_sc.h"
	.loc 8 113 0
	add	x6, x2, 12
#APP
// 113 "/mnt/disk/jenkins/ci/workspace/chipset_GLK_patch/opensource/component_code/vendor/huawei/extra/build/build_script/kirin_kernel_release/kernel/arch/arm64/include/asm/atomic_ll_sc.h" 1
	// atomic_add_return
	prfm	pstl1strm, [x6]
1:	ldxr	w5, [x6]
	add	w5, w5, 1
	stlxr	w1, w5, [x6]
	cbnz	w1, 1b
	dmb ish
// 0 "" 2
.LVL57:
#NO_APP
.LBE1671:
.LBE1670:
	.loc 1 655 0
	ldr	w1, [x2,328]
.LVL58:
	cmp	w5, w1
	bgt	.L38
.LVL59:
.L35:
.LBE1669:
.LBE1668:
	.loc 1 735 0
	ldr	x4, [x4,280]
.LVL60:
	mov	x1, x3
.LVL61:
	str	x2, [x29,40]
	ldr	x3, [x4]
.LVL62:
	blr	x3
.LVL63:
	mov	w20, w0
.LVL64:
	.loc 1 737 0
	mov	w1, 6
	mov	x0, x19
	bl	hisi_blk_latency_req_check
.LVL65:
	.loc 1 739 0
	ldr	x2, [x29,40]
.LVL66:
	cbnz	w20, .L41
	mov	w0, 0
.LVL67:
.L32:
.LBE1667:
.LBE1666:
	.loc 1 759 0
	ldp	x19, x20, [sp,16]
	.cfi_remember_state
	.cfi_restore 20
	.cfi_restore 19
.LVL68:
	ldp	x29, x30, [sp], 48
	.cfi_restore 30
	.cfi_restore 29
	.cfi_def_cfa 31, 0
	ret
.LVL69:
.L42:
	.cfi_restore_state
	.loc 1 757 0
	ldr	x2, [x4,280]
.LVL70:
	mov	x1, x3
	ldr	x2, [x2]
	blr	x2
.LVL71:
	.loc 1 759 0
	ldp	x19, x20, [sp,16]
	.cfi_remember_state
	.cfi_restore 19
	.cfi_restore 20
.LVL72:
	ldp	x29, x30, [sp], 48
	.cfi_restore 29
	.cfi_restore 30
	.cfi_def_cfa 31, 0
	ret
.LVL73:
.L33:
	.cfi_restore_state
.LBB1703:
.LBB1701:
.LBB1678:
.LBB1676:
.LBB1672:
.LBB1673:
	.loc 8 113 0
	add	x6, x2, 16
#APP
// 113 "/mnt/disk/jenkins/ci/workspace/chipset_GLK_patch/opensource/component_code/vendor/huawei/extra/build/build_script/kirin_kernel_release/kernel/arch/arm64/include/asm/atomic_ll_sc.h" 1
	// atomic_add_return
	prfm	pstl1strm, [x6]
1:	ldxr	w5, [x6]
	add	w5, w5, 1
	stlxr	w1, w5, [x6]
	cbnz	w1, 1b
	dmb ish
// 0 "" 2
.LVL74:
#NO_APP
.LBE1673:
.LBE1672:
	.loc 1 670 0
	ldr	w1, [x2,332]
.LVL75:
	cmp	w5, w1
	ble	.L35
.LVL76:
.L38:
	.loc 1 660 0
	mov	w0, 2
.LVL77:
	mov	w20, 1
.LVL78:
	str	w0, [x19,276]
.L37:
	ldr	x0, [x19,88]
.LBE1676:
.LBE1678:
.LBB1679:
.LBB1680:
	.loc 1 697 0
	tbz	x0, 3, .L39
	.loc 1 698 0
	tbnz	x0, 11, .L44
.LBB1681:
.LBB1682:
	.loc 8 114 0
	add	x2, x2, 12
.LVL79:
#APP
// 114 "/mnt/disk/jenkins/ci/workspace/chipset_GLK_patch/opensource/component_code/vendor/huawei/extra/build/build_script/kirin_kernel_release/kernel/arch/arm64/include/asm/atomic_ll_sc.h" 1
	// atomic_sub
	prfm	pstl1strm, [x2]
1:	ldxr	w0, [x2]
	sub	w0, w0, 1
	stxr	w1, w0, [x2]
	cbnz	w1, 1b
// 0 "" 2
.LVL80:
#NO_APP
.LBE1682:
.LBE1681:
.LBE1680:
.LBE1679:
	.loc 1 751 0
	mov	w0, w20
.LVL81:
.LBE1701:
.LBE1703:
	.loc 1 759 0
	ldp	x19, x20, [sp,16]
	.cfi_remember_state
	.cfi_restore 19
	.cfi_restore 20
.LVL82:
	ldp	x29, x30, [sp], 48
	.cfi_restore 29
	.cfi_restore 30
	.cfi_def_cfa 31, 0
	ret
.LVL83:
.L41:
	.cfi_restore_state
.LBB1704:
.LBB1702:
	.loc 1 742 0
	mov	w0, 1
	str	w0, [x19,276]
.LBB1689:
.LBB1690:
.LBB1691:
	.loc 2 247 0 discriminator 4
	ldr	w3, [x2,8]
.LBE1691:
.LBE1690:
.LBE1689:
.LBB1692:
.LBB1693:
.LBB1694:
	ldr	w0, [x2,12]
.LBE1694:
.LBE1693:
.LBE1692:
.LBB1695:
.LBB1696:
.LBB1697:
	ldr	w1, [x2,16]
.LBE1697:
.LBE1696:
.LBE1695:
	.loc 1 744 0 discriminator 11
	add	w0, w3, w0
	.loc 1 744 0 is_stmt 0 discriminator 17
	add	w0, w0, w1
	cmp	w0, 8
	bgt	.L37
	.loc 1 745 0 is_stmt 1
	mov	w0, 3
	str	w0, [x19,276]
	b	.L37
.LVL84:
.L43:
.LBB1698:
.LBB1677:
.LBB1674:
.LBB1675:
	.loc 8 113 0
	add	x6, x2, 8
#APP
// 113 "/mnt/disk/jenkins/ci/workspace/chipset_GLK_patch/opensource/component_code/vendor/huawei/extra/build/build_script/kirin_kernel_release/kernel/arch/arm64/include/asm/atomic_ll_sc.h" 1
	// atomic_add
	prfm	pstl1strm, [x6]
1:	ldxr	w1, [x6]
	add	w1, w1, 1
	stxr	w5, w1, [x6]
	cbnz	w5, 1b
// 0 "" 2
.LVL85:
#NO_APP
	b	.L35
.LVL86:
.L39:
.LBE1675:
.LBE1674:
.LBE1677:
.LBE1698:
.LBB1699:
.LBB1687:
.LBB1683:
.LBB1684:
	.loc 8 114 0
	add	x2, x2, 16
.LVL87:
#APP
// 114 "/mnt/disk/jenkins/ci/workspace/chipset_GLK_patch/opensource/component_code/vendor/huawei/extra/build/build_script/kirin_kernel_release/kernel/arch/arm64/include/asm/atomic_ll_sc.h" 1
	// atomic_sub
	prfm	pstl1strm, [x2]
1:	ldxr	w0, [x2]
	sub	w0, w0, 1
	stxr	w1, w0, [x2]
	cbnz	w1, 1b
// 0 "" 2
.LVL88:
#NO_APP
.LBE1684:
.LBE1683:
.LBE1687:
.LBE1699:
	.loc 1 751 0
	mov	w0, w20
.LVL89:
	b	.L32
.LVL90:
.L44:
.LBB1700:
.LBB1688:
.LBB1685:
.LBB1686:
	.loc 8 114 0
	add	x2, x2, 8
.LVL91:
#APP
// 114 "/mnt/disk/jenkins/ci/workspace/chipset_GLK_patch/opensource/component_code/vendor/huawei/extra/build/build_script/kirin_kernel_release/kernel/arch/arm64/include/asm/atomic_ll_sc.h" 1
	// atomic_sub
	prfm	pstl1strm, [x2]
1:	ldxr	w0, [x2]
	sub	w0, w0, 1
	stxr	w1, w0, [x2]
	cbnz	w1, 1b
// 0 "" 2
.LVL92:
#NO_APP
.LBE1686:
.LBE1685:
.LBE1688:
.LBE1700:
	.loc 1 751 0
	mov	w0, w20
.LVL93:
	b	.L32
.LBE1702:
.LBE1704:
	.cfi_endproc
.LFE3165:
	.size	ufs_mq_queue_rq, .-ufs_mq_queue_rq
	.align	2
	.type	ufs_mq_insert_async_list, %function
ufs_mq_insert_async_list:
.LFB3189:
	.loc 1 1195 0
	.cfi_startproc
.LVL94:
	stp	x29, x30, [sp, -64]!
	.cfi_def_cfa_offset 64
	.cfi_offset 29, -64
	.cfi_offset 30, -56
	add	x29, sp, 0
	.cfi_def_cfa_register 29
	stp	x19, x20, [sp,16]
	.cfi_offset 19, -48
	.cfi_offset 20, -40
	mov	x19, x1
	str	x23, [sp,48]
	stp	x21, x22, [sp,32]
	.cfi_offset 23, -16
	.cfi_offset 21, -32
	.cfi_offset 22, -24
	.loc 1 1199 0
	mov	w1, 5
.LVL95:
	.loc 1 1195 0
	mov	x22, x0
	.loc 1 1197 0
	ldr	x20, [x19,13016]
.LVL96:
	.loc 1 1199 0
	bl	hisi_blk_latency_req_check
.LVL97:
	.loc 1 1200 0
	ldr	x0, [x19,13024]
	cbz	x0, .L45
	.loc 1 1200 0 is_stmt 0 discriminator 1
	ldr	x21, [x0,208]
	cbz	x21, .L45
.LBB1705:
	.loc 1 1202 0 is_stmt 1
	ldr	x0, [x21]
	ldr	x0, [x0,16]
	cbz	x0, .L45
.LBB1706:
.LBB1707:
	.file 9 "/mnt/disk/jenkins/ci/workspace/chipset_GLK_patch/opensource/component_code/vendor/huawei/extra/build/build_script/kirin_kernel_release/kernel/include/linux/spinlock.h"
	.loc 9 291 0
	add	x20, x20, 304
.LVL98:
.LBE1707:
.LBE1706:
	.loc 1 1203 0 discriminator 1
	mov	x0, x20
	bl	_raw_spin_lock_irqsave
.LVL99:
	mov	x23, x0
.LVL100:
	.loc 1 1204 0
	ldr	x2, [x21]
	mov	x0, x22
	mov	x1, x19
	ldr	x2, [x2,16]
	blr	x2
.LVL101:
.LBB1708:
.LBB1709:
	.loc 9 362 0
	mov	x0, x20
	mov	x1, x23
	bl	_raw_spin_unlock_irqrestore
.LVL102:
.L45:
.LBE1709:
.LBE1708:
.LBE1705:
	.loc 1 1208 0
	ldp	x19, x20, [sp,16]
	.cfi_restore 20
	.cfi_restore 19
.LVL103:
	ldp	x21, x22, [sp,32]
	.cfi_restore 22
	.cfi_restore 21
.LVL104:
	ldr	x23, [sp,48]
	.cfi_restore 23
.LVL105:
	ldp	x29, x30, [sp], 64
	.cfi_restore 30
	.cfi_restore 29
	.cfi_def_cfa 31, 0
	ret
	.cfi_endproc
.LFE3189:
	.size	ufs_mq_insert_async_list, .-ufs_mq_insert_async_list
	.align	2
	.type	ufs_mq_run_delay_queue, %function
ufs_mq_run_delay_queue:
.LFB3218:
	.loc 1 1649 0
	.cfi_startproc
.LVL106:
	stp	x29, x30, [sp, -64]!
	.cfi_def_cfa_offset 64
	.cfi_offset 29, -64
	.cfi_offset 30, -56
.LBB1710:
.LBB1711:
.LBB1712:
.LBB1713:
	.file 10 "/mnt/disk/jenkins/ci/workspace/chipset_GLK_patch/opensource/component_code/vendor/huawei/extra/build/build_script/kirin_kernel_release/kernel/include/linux/workqueue.h"
	.loc 10 492 0
	mov	x3, 0
.LBE1713:
.LBE1712:
.LBE1711:
.LBE1710:
	.loc 1 1649 0
	add	x29, sp, 0
	.cfi_def_cfa_register 29
	stp	x19, x20, [sp,16]
	.cfi_offset 19, -48
	.cfi_offset 20, -40
	mov	x19, x0
.LBB1720:
.LBB1718:
.LBB1716:
.LBB1714:
	.loc 10 492 0
	mov	w0, 8
.LVL107:
.LBE1714:
.LBE1716:
.LBE1718:
.LBE1720:
	.loc 1 1649 0
	stp	x21, x22, [sp,32]
	.cfi_offset 21, -32
	.cfi_offset 22, -24
.LBB1721:
.LBB1719:
	.loc 1 764 0
	adrp	x22, .LANCHOR0
	ldr	x2, [x19,13016]
.LBB1717:
.LBB1715:
	.loc 10 492 0
	ldr	x1, [x22,#:lo12:.LANCHOR0]
	add	x2, x2, 24
	bl	queue_delayed_work_on
.LVL108:
.LBE1715:
.LBE1717:
.LBE1719:
.LBE1721:
.LBB1722:
.LBB1723:
	.loc 1 1231 0
	ldr	x0, [x19,13024]
	.loc 1 1230 0
	ldr	x2, [x19,13016]
.LVL109:
	.loc 1 1231 0
	cbz	x0, .L57
	.loc 1 1231 0 is_stmt 0 discriminator 1
	ldr	x21, [x0,208]
	cbz	x21, .L57
.LBB1724:
	.loc 1 1233 0 is_stmt 1
	ldr	x0, [x21]
	ldr	x0, [x0,48]
	cbz	x0, .L57
.LBB1725:
.LBB1726:
	.loc 9 291 0
	add	x20, x2, 304
.LBE1726:
.LBE1725:
	.loc 1 1234 0 discriminator 1
	mov	x0, x20
	bl	_raw_spin_lock_irqsave
.LVL110:
	str	x0, [x29,56]
	.loc 1 1235 0
	ldr	x2, [x21]
	mov	x0, x19
.LVL111:
	ldr	x2, [x2,48]
	blr	x2
.LVL112:
	uxtb	w21, w0
.LVL113:
.LBB1727:
.LBB1728:
	.loc 9 362 0
	ldr	x1, [x29,56]
.LVL114:
	mov	x0, x20
	bl	_raw_spin_unlock_irqrestore
.LVL115:
.LBE1728:
.LBE1727:
.LBE1724:
.LBE1723:
.LBE1722:
	.loc 1 1651 0
	cbz	w21, .L62
	.loc 1 1654 0
	ldp	x19, x20, [sp,16]
	.cfi_remember_state
	.cfi_restore 20
	.cfi_restore 19
.LVL116:
	ldp	x21, x22, [sp,32]
	.cfi_restore 22
	.cfi_restore 21
.LVL117:
	mov	w0, 0
	ldp	x29, x30, [sp], 64
	.cfi_restore 30
	.cfi_restore 29
	.cfi_def_cfa 31, 0
	ret
.LVL118:
.L62:
	.cfi_restore_state
	ldr	x2, [x19,13016]
.LVL119:
.L57:
.LBB1729:
.LBB1730:
	.loc 1 1185 0
	add	x22, x22, :lo12:.LANCHOR0
.LBB1731:
.LBB1732:
	.loc 10 492 0
	add	x2, x2, 128
.LVL120:
	mov	x3, 0
	mov	w0, 8
	ldr	x1, [x22,8]
	bl	queue_delayed_work_on
.LVL121:
.LBE1732:
.LBE1731:
.LBE1730:
.LBE1729:
	.loc 1 1654 0
	mov	w0, 0
	ldp	x19, x20, [sp,16]
	.cfi_restore 19
	.cfi_restore 20
.LVL122:
	ldp	x21, x22, [sp,32]
	.cfi_restore 21
	.cfi_restore 22
.LVL123:
	ldp	x29, x30, [sp], 64
	.cfi_restore 29
	.cfi_restore 30
	.cfi_def_cfa 31, 0
	ret
	.cfi_endproc
.LFE3218:
	.size	ufs_mq_run_delay_queue, .-ufs_mq_run_delay_queue
	.align	2
	.type	ufs_mq_async_io_dispatch_work_fn, %function
ufs_mq_async_io_dispatch_work_fn:
.LFB3200:
	.loc 1 1437 0
	.cfi_startproc
.LVL124:
	stp	x29, x30, [sp, -144]!
	.cfi_def_cfa_offset 144
	.cfi_offset 29, -144
	.cfi_offset 30, -136
	add	x29, sp, 0
	.cfi_def_cfa_register 29
	stp	x23, x24, [sp,48]
	stp	x25, x26, [sp,64]
	str	x27, [sp,80]
	.cfi_offset 23, -96
	.cfi_offset 24, -88
	.cfi_offset 25, -80
	.cfi_offset 26, -72
	.cfi_offset 27, -64
	adrp	x26, __stack_chk_guard
	stp	x19, x20, [sp,16]
	stp	x21, x22, [sp,32]
	.cfi_offset 19, -128
	.cfi_offset 20, -120
	.cfi_offset 21, -112
	.cfi_offset 22, -104
.LBB1784:
.LBB1785:
	.loc 1 1404 0
	str	xzr, [x29,120]
.LBB1786:
.LBB1787:
.LBB1788:
.LBB1789:
.LBB1790:
	.loc 1 1281 0 discriminator 5
	adrp	x23, .L67
.LBE1790:
.LBE1789:
.LBE1788:
.LBE1787:
.LBE1786:
.LBE1785:
.LBE1784:
	.loc 1 1439 0
	ldr	x19, [x0,96]
.LBB1887:
.LBB1883:
.LBB1877:
.LBB1840:
.LBB1833:
.LBB1826:
.LBB1819:
	.loc 1 1300 0 discriminator 7
	mov	w25, 16
.LBE1819:
.LBE1826:
.LBE1833:
.LBE1840:
.LBE1877:
.LBE1883:
.LBE1887:
	.loc 1 1437 0
	ldr	x0, [x26,#:lo12:__stack_chk_guard]
.LVL125:
.LBB1888:
.LBB1884:
.LBB1878:
.LBB1841:
.LBB1834:
.LBB1827:
.LBB1820:
	.loc 1 1300 0 discriminator 7
	mov	w24, 12
.LBE1820:
.LBE1827:
.LBE1834:
.LBE1841:
.LBE1878:
.LBE1884:
.LBE1888:
	.loc 1 1437 0
	str	x0, [x29,136]
.LBB1889:
.LBB1885:
.LBB1879:
.LBB1842:
.LBB1835:
.LBB1828:
.LBB1821:
	.loc 1 1281 0 discriminator 5
	add	x23, x23, :lo12:.L67
.LBE1821:
.LBE1828:
.LBE1835:
.LBE1842:
.LBE1879:
	.loc 1 1403 0
	ldr	x22, [x19,13016]
.LVL126:
.LBB1880:
.LBB1843:
.LBB1836:
.LBB1829:
.LBB1822:
	.loc 1 1293 0 discriminator 7
	mov	w27, 8
.LBE1822:
.LBE1829:
.LBE1836:
.LBE1843:
.LBE1880:
	.loc 1 1404 0
	mov	x0, x22
.LBB1881:
.LBB1844:
.LBB1837:
	.loc 1 1368 0
	str	wzr, [x0,428]
.LBB1830:
.LBB1823:
	.loc 1 1280 0
	ldr	x20, [x19,13016]
.LVL127:
.LBB1791:
.LBB1792:
.LBB1793:
	.loc 2 247 0 discriminator 4
	ldr	w0, [x20,424]
.LBE1793:
.LBE1792:
.LBE1791:
	.loc 1 1281 0 discriminator 5
	cmp	w0, 3
	bls	.L112
.L65:
	.loc 1 1300 0 discriminator 5
	ldr	x0, [x19,14920]
.LBB1796:
.LBB1797:
	.loc 1 1272 0
	mov	x21, x20
.LBE1797:
.LBE1796:
.LBB1800:
.LBB1801:
.LBB1802:
	.loc 2 247 0 discriminator 4
	ldr	w2, [x19,1168]
.LBE1802:
.LBE1801:
.LBE1800:
.LBB1803:
.LBB1798:
	.loc 1 1272 0
	ldr	w1, [x20,332]
.LBE1798:
.LBE1803:
	.loc 1 1300 0 discriminator 5
	ldr	w0, [x0,1356]
	sub	w0, w0, #4
	.loc 1 1300 0 is_stmt 0 discriminator 7
	cmp	w2, w0
	csel	w0, w25, w24, hi
.LBB1804:
.LBB1799:
	.loc 1 1272 0 is_stmt 1
	cmp	w1, w0
	beq	.L72
.L111:
	.loc 1 1274 0
	str	w0, [x20,332]
	.loc 1 1275 0
	bl	ktime_get
.LVL128:
	str	x0, [x20,368]
	ldr	x21, [x19,13016]
.L72:
.LBE1799:
.LBE1804:
.LBE1823:
.LBE1830:
.LBE1837:
.LBE1844:
.LBB1845:
.LBB1846:
	.loc 1 1251 0
	ldr	x0, [x19,13024]
	cbz	x0, .L63
.L113:
	.loc 1 1251 0 is_stmt 0 discriminator 1
	ldr	x20, [x0,208]
.LVL129:
	cbz	x20, .L63
.LBB1847:
	.loc 1 1253 0 is_stmt 1
	ldr	x0, [x20]
	ldr	x0, [x0,24]
	cbz	x0, .L63
.LBB1848:
.LBB1849:
	.loc 9 291 0
	add	x21, x21, 304
.LBE1849:
.LBE1848:
	.loc 1 1254 0 discriminator 1
	mov	x0, x21
	bl	_raw_spin_lock_irqsave
.LVL130:
	str	x0, [x29,104]
	.loc 1 1255 0
	ldr	x2, [x20]
	mov	x0, x19
.LVL131:
	ldr	x2, [x2,24]
	blr	x2
.LVL132:
	mov	x20, x0
.LVL133:
.LBB1850:
.LBB1851:
	.loc 9 362 0
	ldr	x1, [x29,104]
.LVL134:
	mov	x0, x21
	bl	_raw_spin_unlock_irqrestore
.LVL135:
.LBE1851:
.LBE1850:
.LBE1847:
.LBE1846:
.LBE1845:
	.loc 1 1412 0
	cbz	x20, .L63
	.loc 1 1415 0
	ldr	x4, [x20,72]
	.loc 1 1418 0
	mov	x0, x20
.LBB1853:
.LBB1854:
	.loc 6 53 0
	ldr	x5, [x19,288]
.LBE1854:
.LBE1853:
	.loc 1 1418 0
	mov	x2, x22
.LBB1857:
.LBB1855:
	.loc 6 53 0
	ldr	x1, [x19,312]
.LBE1855:
.LBE1857:
	.loc 1 1418 0
	add	x3, x29, 112
	.loc 1 1415 0
	ldr	w6, [x4,64]
	.loc 1 1418 0
	mov	x4, x19
.LBB1858:
.LBB1856:
	.loc 6 53 0
	ldr	w5, [x5,w6,sxtw 2]
	ldr	x1, [x1,w5,uxtw 3]
.LBE1856:
.LBE1858:
	.loc 1 1416 0
	str	x20, [x29,112]
	.loc 1 1418 0
	bl	ufs_mq_queue_rq
.LVL136:
	.loc 1 1420 0
	cbnz	w0, .L78
.LBB1859:
.LBB1860:
	.file 11 "/mnt/disk/jenkins/ci/workspace/chipset_GLK_patch/opensource/component_code/vendor/huawei/extra/build/build_script/kirin_kernel_release/kernel/include/linux/blkdev.h"
	.loc 11 1267 0
	ldr	w0, [x20,104]
.LVL137:
.LBE1860:
.LBE1859:
	.loc 1 1421 0
	ldr	x20, [x20,112]
.LVL138:
	ubfx	x0, x0, 9, 23
	add	x0, x0, x20
	str	x0, [x19,328]
	ldr	x0, [x19,13016]
.LVL139:
.L116:
.LBB1861:
.LBB1838:
	.loc 1 1368 0
	str	wzr, [x0,428]
.LBB1831:
.LBB1824:
	.loc 1 1280 0
	ldr	x20, [x19,13016]
.LVL140:
.LBB1805:
.LBB1795:
.LBB1794:
	.loc 2 247 0 discriminator 4
	ldr	w0, [x20,424]
.LBE1794:
.LBE1795:
.LBE1805:
	.loc 1 1281 0 discriminator 5
	cmp	w0, 3
	bhi	.L65
.L112:
	ldrb	w0, [x23,w0,uxtw]
	adr	x1, .Lrtx67
	add	x0, x1, w0, sxtb #2
	br	x0
.Lrtx67:
	.section	.rodata
	.align	0
	.align	2
.L67:
	.byte	(.L65 - .Lrtx67) / 4
	.byte	(.L68 - .Lrtx67) / 4
	.byte	(.L69 - .Lrtx67) / 4
	.byte	(.L70 - .Lrtx67) / 4
	.text
.L69:
.LBB1806:
.LBB1807:
	.loc 1 1272 0
	ldr	w0, [x20,332]
	mov	x21, x20
	cmp	w0, 1
	beq	.L72
	.loc 1 1274 0
	mov	w0, 1
	str	w0, [x20,332]
	.loc 1 1275 0
	bl	ktime_get
.LVL141:
	str	x0, [x20,368]
.LBE1807:
.LBE1806:
.LBE1824:
.LBE1831:
.LBE1838:
.LBE1861:
.LBB1862:
.LBB1852:
	.loc 1 1251 0
	ldr	x0, [x19,13024]
	ldr	x21, [x19,13016]
	cbnz	x0, .L113
.LVL142:
.L63:
.LBE1852:
.LBE1862:
.LBE1881:
.LBE1885:
.LBE1889:
	.loc 1 1440 0
	ldr	x1, [x29,136]
	ldr	x0, [x26,#:lo12:__stack_chk_guard]
	cmp	x1, x0
	bne	.L114
	ldp	x19, x20, [sp,16]
	.cfi_remember_state
	.cfi_restore 20
	.cfi_restore 19
.LVL143:
	ldp	x21, x22, [sp,32]
	.cfi_restore 22
	.cfi_restore 21
.LVL144:
	ldp	x23, x24, [sp,48]
	.cfi_restore 24
	.cfi_restore 23
.LVL145:
	ldp	x25, x26, [sp,64]
	.cfi_restore 26
	.cfi_restore 25
	ldr	x27, [sp,80]
	.cfi_restore 27
	ldp	x29, x30, [sp], 144
	.cfi_restore 30
	.cfi_restore 29
	.cfi_def_cfa 31, 0
	ret
.LVL146:
.L68:
	.cfi_restore_state
.LBB1890:
.LBB1886:
.LBB1882:
.LBB1863:
.LBB1839:
.LBB1832:
.LBB1825:
.LBB1808:
.LBB1809:
	.loc 1 1272 0
	ldr	w0, [x20,332]
	mov	x21, x20
	cmp	w0, 2
	beq	.L72
	.loc 1 1274 0
	mov	w0, 2
	str	w0, [x20,332]
	.loc 1 1275 0
	bl	ktime_get
.LVL147:
	str	x0, [x20,368]
	ldr	x21, [x19,13016]
	b	.L72
.L70:
.LBE1809:
.LBE1808:
	.loc 1 1293 0 discriminator 5
	ldr	x0, [x19,14920]
.LBB1810:
.LBB1811:
	.loc 1 1272 0
	mov	x21, x20
.LBE1811:
.LBE1810:
.LBB1814:
.LBB1815:
.LBB1816:
	.loc 2 247 0 discriminator 4
	ldr	w2, [x19,1168]
.LBE1816:
.LBE1815:
.LBE1814:
.LBB1817:
.LBB1812:
	.loc 1 1272 0
	ldr	w1, [x20,332]
.LBE1812:
.LBE1817:
	.loc 1 1293 0 discriminator 5
	ldr	w0, [x0,1356]
	sub	w0, w0, #4
	.loc 1 1293 0 is_stmt 0 discriminator 7
	cmp	w2, w0
	csel	w0, w24, w27, hi
.LBB1818:
.LBB1813:
	.loc 1 1272 0 is_stmt 1
	cmp	w1, w0
	bne	.L111
	b	.L72
.LVL148:
.L78:
.LBE1813:
.LBE1818:
.LBE1825:
.LBE1832:
.LBE1839:
.LBE1863:
	.loc 1 1423 0
	cmp	w0, 2
	beq	.L115
	.loc 1 1428 0
	mov	x0, x20
.LVL149:
	bl	__blk_mq_requeue_request
.LVL150:
.LBB1864:
.LBB1865:
	.loc 1 1213 0
	ldr	x21, [x19,13016]
.LVL151:
	.loc 1 1215 0
	mov	x0, x20
	mov	w1, 5
	bl	hisi_blk_latency_req_check
.LVL152:
	.loc 1 1216 0
	ldr	x0, [x19,13024]
	cbz	x0, .L81
	.loc 1 1216 0 is_stmt 0 discriminator 1
	ldr	x22, [x0,208]
.LVL153:
	cbz	x22, .L81
.LBB1866:
	.loc 1 1218 0 is_stmt 1
	ldr	x0, [x22]
	ldr	x0, [x0,32]
	cbz	x0, .L81
.LBB1867:
.LBB1868:
	.loc 9 291 0
	add	x21, x21, 304
.LVL154:
.LBE1868:
.LBE1867:
	.loc 1 1219 0 discriminator 1
	mov	x0, x21
	bl	_raw_spin_lock_irqsave
.LVL155:
	mov	x23, x0
.LVL156:
	.loc 1 1220 0
	ldr	x2, [x22]
	mov	x0, x20
	mov	x1, x19
	ldr	x2, [x2,32]
	blr	x2
.LVL157:
.LBB1869:
.LBB1870:
	.loc 9 362 0
	mov	x0, x21
	mov	x1, x23
	bl	_raw_spin_unlock_irqrestore
.LVL158:
.L81:
.LBE1870:
.LBE1869:
.LBE1866:
.LBE1865:
.LBE1864:
.LBB1871:
.LBB1872:
.LBB1873:
.LBB1874:
	.loc 10 492 0
	adrp	x1, .LANCHOR0+8
.LBE1874:
.LBE1873:
	.loc 1 1185 0
	ldr	x2, [x19,13016]
.LBB1876:
.LBB1875:
	.loc 10 492 0
	mov	x3, 3
	mov	w0, 8
	add	x2, x2, 128
	ldr	x1, [x1,#:lo12:.LANCHOR0+8]
	bl	queue_delayed_work_on
.LVL159:
	b	.L63
.LVL160:
.L115:
.LBE1875:
.LBE1876:
.LBE1872:
.LBE1871:
	.loc 1 1424 0
	mov	w1, -5
	.loc 1 1425 0
	mov	x0, x20
.LVL161:
	.loc 1 1424 0
	str	w1, [x20,564]
	.loc 1 1425 0
	bl	blk_mq_end_request
.LVL162:
	ldr	x0, [x19,13016]
	b	.L116
.LVL163:
.L114:
.LBE1882:
.LBE1886:
.LBE1890:
	.loc 1 1440 0
	bl	__stack_chk_fail
.LVL164:
	.cfi_endproc
.LFE3200:
	.size	ufs_mq_async_io_dispatch_work_fn, .-ufs_mq_async_io_dispatch_work_fn
	.align	2
	.type	ufs_mq_async_sched_fifo_attempt_merge_bio, %function
ufs_mq_async_sched_fifo_attempt_merge_bio:
.LFB3185:
	.loc 1 1147 0
	.cfi_startproc
.LVL165:
	stp	x29, x30, [sp, -64]!
	.cfi_def_cfa_offset 64
	.cfi_offset 29, -64
	.cfi_offset 30, -56
	add	x29, sp, 0
	.cfi_def_cfa_register 29
	stp	x21, x22, [sp,32]
	str	x23, [sp,48]
	.cfi_offset 21, -32
	.cfi_offset 22, -24
	.cfi_offset 23, -16
	mov	x21, x0
	stp	x19, x20, [sp,16]
	.cfi_offset 19, -48
	.cfi_offset 20, -40
	.loc 1 1147 0
	mov	x23, x1
	.loc 1 1149 0
	ldr	x0, [x1,13016]
.LVL166:
	.loc 1 1150 0 discriminator 1
	add	x22, x0, 264
.LBB1891:
	.loc 1 1150 0 is_stmt 0
	ldr	x19, [x0,272]
.LVL167:
.LBE1891:
	.loc 1 1150 0 discriminator 1
	cmp	x22, x19
.LBB1892:
	.loc 1 1150 0
	sub	x19, x19, #440
.LVL168:
.LBE1892:
	.loc 1 1150 0 discriminator 1
	bne	.L128
	b	.L122
.LVL169:
.L124:
.LBB1893:
	.loc 1 1150 0 discriminator 2
	ldr	x19, [x19,448]
.LVL170:
.LBE1893:
	.loc 1 1150 0 discriminator 1
	cmp	x22, x19
.LBB1894:
	.loc 1 1150 0 discriminator 2
	sub	x19, x19, #440
.LVL171:
.LBE1894:
	.loc 1 1150 0 discriminator 1
	beq	.L122
.LVL172:
.L128:
.LBB1895:
	.loc 1 1152 0 is_stmt 1
	mov	x0, x19
.LVL173:
	mov	x1, x21
	bl	blk_rq_merge_ok
.LVL174:
	uxtb	w20, w0
	cbz	w20, .L124
	.loc 1 1154 0
	mov	x1, x21
	mov	x0, x19
	bl	blk_try_merge
.LVL175:
	.loc 1 1155 0
	cmp	w0, 2
	beq	.L132
	.loc 1 1158 0
	cmp	w0, 1
	bne	.L124
	.loc 1 1159 0
	mov	x1, x19
	mov	x0, x23
.LVL176:
	mov	x2, x21
	bl	bio_attempt_front_merge
.LVL177:
	uxtb	w0, w0
	cbz	w0, .L124
.L119:
.LBE1895:
	.loc 1 1164 0
	mov	w0, w20
	ldr	x23, [sp,48]
	.cfi_remember_state
	.cfi_restore 23
.LVL178:
	ldp	x19, x20, [sp,16]
	.cfi_restore 20
	.cfi_restore 19
.LVL179:
	ldp	x21, x22, [sp,32]
	.cfi_restore 22
	.cfi_restore 21
.LVL180:
	ldp	x29, x30, [sp], 64
	.cfi_restore 30
	.cfi_restore 29
	.cfi_def_cfa 31, 0
	ret
.LVL181:
.L132:
	.cfi_restore_state
.LBB1896:
	.loc 1 1156 0
	mov	x1, x19
	mov	x0, x23
.LVL182:
	mov	x2, x21
	bl	bio_attempt_back_merge
.LVL183:
	uxtb	w0, w0
	cbnz	w0, .L119
.LBE1896:
.LBB1897:
	.loc 1 1150 0 discriminator 2
	ldr	x19, [x19,448]
.LVL184:
.LBE1897:
	.loc 1 1150 0 is_stmt 0 discriminator 1
	cmp	x22, x19
.LBB1898:
	.loc 1 1150 0 discriminator 2
	sub	x19, x19, #440
.LVL185:
.LBE1898:
	.loc 1 1150 0 discriminator 1
	bne	.L128
.LVL186:
.L122:
	.loc 1 1163 0 is_stmt 1
	mov	w20, 0
	.loc 1 1164 0
	ldr	x23, [sp,48]
	.cfi_restore 23
.LVL187:
	mov	w0, w20
.LVL188:
	ldp	x19, x20, [sp,16]
	.cfi_restore 19
	.cfi_restore 20
.LVL189:
	ldp	x21, x22, [sp,32]
	.cfi_restore 21
	.cfi_restore 22
.LVL190:
	ldp	x29, x30, [sp], 64
	.cfi_restore 29
	.cfi_restore 30
	.cfi_def_cfa 31, 0
	ret
	.cfi_endproc
.LFE3185:
	.size	ufs_mq_async_sched_fifo_attempt_merge_bio, .-ufs_mq_async_sched_fifo_attempt_merge_bio
	.align	2
	.type	ufs_mq_dump_request, %function
ufs_mq_dump_request:
.LFB3222:
	.loc 1 1692 0
	.cfi_startproc
.LVL191:
	stp	x29, x30, [sp, -48]!
	.cfi_def_cfa_offset 48
	.cfi_offset 29, -48
	.cfi_offset 30, -40
	add	x29, sp, 0
	.cfi_def_cfa_register 29
	stp	x19, x20, [sp,16]
	stp	x21, x22, [sp,32]
	.cfi_offset 19, -32
	.cfi_offset 20, -24
	.cfi_offset 21, -16
	.cfi_offset 22, -8
	.loc 1 1693 0
	ldr	x19, [x0,13016]
.LVL192:
	.loc 1 1695 0
	cbz	x19, .L133
.LBB1899:
.LBB1900:
.LBB1901:
.LBB1902:
	.loc 2 247 0 discriminator 5
	ldr	x0, [x19,232]
.LVL193:
.LBE1902:
.LBE1901:
.LBE1900:
.LBE1899:
	.loc 1 1698 0
	add	x21, x19, 232
	mov	x20, x1
	cmp	x21, x0
	bne	.L135
.LVL194:
.L138:
.LBB1903:
.LBB1904:
.LBB1905:
.LBB1906:
	.loc 2 247 0 discriminator 5
	ldr	x0, [x19,248]
.LBE1906:
.LBE1905:
.LBE1904:
.LBE1903:
	.loc 1 1705 0
	add	x21, x19, 248
	cmp	x21, x0
	bne	.L149
.LVL195:
.L137:
.LBB1907:
.LBB1908:
.LBB1909:
.LBB1910:
	.loc 2 247 0 discriminator 5
	ldr	x0, [x19,264]
.LBE1910:
.LBE1909:
.LBE1908:
.LBE1907:
	.loc 1 1712 0
	add	x21, x19, 264
	cmp	x21, x0
	bne	.L150
.LVL196:
.L133:
	.loc 1 1719 0
	ldp	x19, x20, [sp,16]
	.cfi_remember_state
	.cfi_restore 20
	.cfi_restore 19
.LVL197:
	ldp	x21, x22, [sp,32]
	.cfi_restore 22
	.cfi_restore 21
.LVL198:
	ldp	x29, x30, [sp], 48
	.cfi_restore 30
	.cfi_restore 29
	.cfi_def_cfa 31, 0
	ret
.LVL199:
.L135:
	.cfi_restore_state
.LBB1911:
	.loc 1 1700 0
	adrp	x0, .LC2
	add	x0, x0, :lo12:.LC2
	bl	printk
.LVL200:
.LBB1912:
	.loc 1 1701 0
	ldr	x22, [x19,232]
.LVL201:
.LBE1912:
	.loc 1 1701 0 is_stmt 0 discriminator 1
	cmp	x21, x22
	beq	.L138
.L139:
	.loc 1 1702 0 is_stmt 1
	mov	x0, x22
	mov	x1, x20
	bl	hisi_blk_dump_request
.LVL202:
.LBB1913:
	.loc 1 1701 0 discriminator 3
	ldr	x22, [x22]
.LBE1913:
	.loc 1 1701 0 is_stmt 0 discriminator 1
	cmp	x21, x22
	bne	.L139
	b	.L138
.LVL203:
.L150:
.LBE1911:
.LBB1914:
	.loc 1 1714 0 is_stmt 1
	adrp	x0, .LC4
	add	x0, x0, :lo12:.LC4
	bl	printk
.LVL204:
.LBB1915:
	.loc 1 1715 0
	ldr	x19, [x19,264]
.LVL205:
.LBE1915:
	.loc 1 1715 0 is_stmt 0 discriminator 1
	cmp	x21, x19
.LBB1916:
	.loc 1 1715 0
	sub	x19, x19, #440
.LVL206:
.LBE1916:
	.loc 1 1715 0 discriminator 1
	beq	.L133
.L143:
	.loc 1 1716 0 is_stmt 1
	mov	x0, x19
	mov	x1, x20
	bl	hisi_blk_dump_request
.LVL207:
.LBB1917:
	.loc 1 1715 0 discriminator 3
	ldr	x19, [x19,440]
.LVL208:
.LBE1917:
	.loc 1 1715 0 is_stmt 0 discriminator 1
	cmp	x21, x19
.LBB1918:
	.loc 1 1715 0 discriminator 3
	sub	x19, x19, #440
.LVL209:
.LBE1918:
	.loc 1 1715 0 discriminator 1
	bne	.L143
	b	.L133
.LVL210:
.L149:
.LBE1914:
.LBB1919:
	.loc 1 1707 0 is_stmt 1
	adrp	x0, .LC3
	add	x0, x0, :lo12:.LC3
	bl	printk
.LVL211:
.LBB1920:
	.loc 1 1708 0
	ldr	x22, [x19,248]
.LVL212:
.LBE1920:
	.loc 1 1708 0 is_stmt 0 discriminator 1
	cmp	x21, x22
	beq	.L137
.L142:
	.loc 1 1709 0 is_stmt 1
	mov	x0, x22
	mov	x1, x20
	bl	hisi_blk_dump_request
.LVL213:
.LBB1921:
	.loc 1 1708 0 discriminator 3
	ldr	x22, [x22]
.LBE1921:
	.loc 1 1708 0 is_stmt 0 discriminator 1
	cmp	x21, x22
	bne	.L142
	b	.L137
.LBE1919:
	.cfi_endproc
.LFE3222:
	.size	ufs_mq_dump_request, .-ufs_mq_dump_request
	.align	2
	.type	ufs_mq_tag_sysfs_show, %function
ufs_mq_tag_sysfs_show:
.LFB3151:
	.loc 1 488 0 is_stmt 1
	.cfi_startproc
.LVL214:
	stp	x29, x30, [sp, -96]!
	.cfi_def_cfa_offset 96
	.cfi_offset 29, -96
	.cfi_offset 30, -88
	add	x29, sp, 0
	.cfi_def_cfa_register 29
	stp	x19, x20, [sp,16]
	stp	x21, x22, [sp,32]
	stp	x23, x24, [sp,48]
	stp	x25, x26, [sp,64]
	.cfi_offset 19, -80
	.cfi_offset 20, -72
	.cfi_offset 21, -64
	.cfi_offset 22, -56
	.cfi_offset 23, -48
	.cfi_offset 24, -40
	.cfi_offset 25, -32
	.cfi_offset 26, -24
	.loc 1 492 0
	cbz	x1, .L153
	.loc 1 495 0
	ldr	w0, [x1,60]
.LVL215:
	mov	x21, x2
	ldr	w5, [x1,8]
	mov	x26, x3
	ldr	w4, [x1,4]
	mov	w6, 1
	ldr	w3, [x1]
.LVL216:
	adrp	x2, .LC5
.LVL217:
	mov	x19, x1
	lsl	w6, w6, w0
	mov	x1, 4096
.LVL218:
	add	x2, x2, :lo12:.LC5
	mov	x0, x21
	.loc 1 503 0
	mov	x24, x1
	.loc 1 495 0
	bl	snprintf
.LVL219:
	mov	w20, w0
.LBB1922:
.LBB1923:
	.loc 1 157 0
	add	x0, x19, 56
	ldr	w25, [x19,56]
	bl	sbitmap_weight
.LVL220:
	sub	w3, w25, w0
.LBE1923:
.LBE1922:
.LBB1925:
.LBB1926:
	add	x0, x19, 112
	ldr	w23, [x19,112]
.LBE1926:
.LBE1925:
.LBB1929:
.LBB1924:
	str	x3, [x29,80]
.LBE1924:
.LBE1929:
.LBB1930:
.LBB1927:
	bl	sbitmap_weight
.LVL221:
	sub	w4, w23, w0
.LBE1927:
.LBE1930:
.LBB1931:
.LBB1932:
	add	x0, x19, 168
	ldr	w22, [x19,168]
.LBE1932:
.LBE1931:
.LBB1934:
.LBB1928:
	str	x4, [x29,88]
.LBE1928:
.LBE1934:
	.loc 1 503 0
	uxtw	x23, w20
.LBB1935:
.LBB1933:
	.loc 1 157 0
	bl	sbitmap_weight
.LVL222:
	sub	w5, w22, w0
.LBE1933:
.LBE1935:
	.loc 1 503 0
	ldr	x4, [x29,88]
	adrp	x2, .LC6
	ldr	x3, [x29,80]
	sub	x1, x24, x23
	add	x0, x21, x23
	add	x2, x2, :lo12:.LC6
	.loc 1 508 0
	mov	w23, 0
	.loc 1 503 0
	bl	snprintf
.LVL223:
	add	w1, w0, w20
.LBB1936:
.LBB1937:
.LBB1938:
	.loc 2 247 0 discriminator 4
	ldr	w3, [x19,48]
.LBE1938:
.LBE1937:
.LBE1936:
	.loc 1 504 0 discriminator 6
	adrp	x2, .LC7
	.loc 1 503 0
	mov	x20, x1
	.loc 1 504 0 discriminator 6
	add	x0, x21, x1
	add	x2, x2, :lo12:.LC7
	sub	x1, x24, x1
	bl	snprintf
.LVL224:
	.loc 1 506 0
	add	w0, w20, w0
	str	x0, [x26]
	.loc 1 509 0
	mov	w0, w23
	ldp	x19, x20, [sp,16]
	.cfi_remember_state
	.cfi_restore 20
	.cfi_restore 19
.LVL225:
	ldp	x21, x22, [sp,32]
	.cfi_restore 22
	.cfi_restore 21
.LVL226:
	ldp	x23, x24, [sp,48]
	.cfi_restore 24
	.cfi_restore 23
	ldp	x25, x26, [sp,64]
	.cfi_restore 26
	.cfi_restore 25
.LVL227:
	ldp	x29, x30, [sp], 96
	.cfi_restore 30
	.cfi_restore 29
	.cfi_def_cfa 31, 0
	ret
.LVL228:
.L153:
	.cfi_restore_state
	.loc 1 493 0
	mov	w23, -22
	.loc 1 509 0
	mov	w0, w23
.LVL229:
	ldp	x19, x20, [sp,16]
	.cfi_restore 19
	.cfi_restore 20
	ldp	x21, x22, [sp,32]
	.cfi_restore 21
	.cfi_restore 22
	ldp	x23, x24, [sp,48]
	.cfi_restore 23
	.cfi_restore 24
	ldp	x25, x26, [sp,64]
	.cfi_restore 25
	.cfi_restore 26
	ldp	x29, x30, [sp], 96
	.cfi_restore 29
	.cfi_restore 30
	.cfi_def_cfa 31, 0
	ret
	.cfi_endproc
.LFE3151:
	.size	ufs_mq_tag_sysfs_show, .-ufs_mq_tag_sysfs_show
	.align	2
	.type	ufs_mq_tag_wakeup_all, %function
ufs_mq_tag_wakeup_all:
.LFB3150:
	.loc 1 479 0
	.cfi_startproc
.LVL230:
	stp	x29, x30, [sp, -32]!
	.cfi_def_cfa_offset 32
	.cfi_offset 29, -32
	.cfi_offset 30, -24
	add	x29, sp, 0
	.cfi_def_cfa_register 29
	str	x19, [sp,16]
	.cfi_offset 19, -16
	.loc 1 479 0
	mov	x19, x0
	.loc 1 481 0
	add	x0, x0, 56
.LVL231:
	bl	sbitmap_queue_wake_all
.LVL232:
	.loc 1 482 0
	add	x0, x19, 112
	bl	sbitmap_queue_wake_all
.LVL233:
	.loc 1 483 0
	add	x0, x19, 168
	bl	sbitmap_queue_wake_all
.LVL234:
	.loc 1 485 0
	ldr	x19, [sp,16]
	.cfi_restore 19
.LVL235:
	mov	w0, 0
	ldp	x29, x30, [sp], 32
	.cfi_restore 30
	.cfi_restore 29
	.cfi_def_cfa 31, 0
	ret
	.cfi_endproc
.LFE3150:
	.size	ufs_mq_tag_wakeup_all, .-ufs_mq_tag_wakeup_all
	.align	2
	.type	ufs_tagset_bt_for_each, %function
ufs_tagset_bt_for_each:
.LFB3136:
	.loc 1 198 0
	.cfi_startproc
.LVL236:
	stp	x29, x30, [sp, -96]!
	.cfi_def_cfa_offset 96
	.cfi_offset 29, -96
	.cfi_offset 30, -88
	add	x29, sp, 0
	.cfi_def_cfa_register 29
	stp	x21, x22, [sp,32]
	stp	x23, x24, [sp,48]
	stp	x25, x26, [sp,64]
	stp	x27, x28, [sp,80]
	stp	x19, x20, [sp,16]
	.cfi_offset 21, -64
	.cfi_offset 22, -56
	.cfi_offset 23, -48
	.cfi_offset 24, -40
	.cfi_offset 25, -32
	.cfi_offset 26, -24
	.cfi_offset 27, -16
	.cfi_offset 28, -8
	.cfi_offset 19, -80
	.cfi_offset 20, -72
	.loc 1 198 0
	mov	x26, x2
	mov	x24, x1
.LBB1944:
.LBB1945:
	.file 12 "/mnt/disk/jenkins/ci/workspace/chipset_GLK_patch/opensource/component_code/vendor/huawei/extra/build/build_script/kirin_kernel_release/kernel/include/linux/sbitmap.h"
	.loc 12 211 0 discriminator 1
	ldr	w2, [x1,8]
.LVL237:
.LBE1945:
.LBE1944:
	.loc 1 198 0
	mov	x28, x0
	mov	x25, x3
	uxtb	w21, w4
.LVL238:
	uxtb	w22, w5
.LVL239:
.LBB1956:
.LBB1954:
	.loc 12 211 0 discriminator 1
	mov	w23, 0
.LVL240:
	cbz	w2, .L155
.LVL241:
.L172:
.LBB1946:
	.loc 12 212 0
	ubfiz	x0, x23, 6, 32
	ldr	x1, [x24,16]
	add	x27, x1, x0
	.loc 12 215 0
	ldr	x0, [x1,x0]
	cbz	x0, .L157
	ldr	x1, [x27,8]
	.loc 12 218 0
	mov	x2, 0
	.loc 12 221 0
	mov	x0, x27
	.loc 12 219 0
	ldr	w20, [x24,4]
.LVL242:
	.loc 12 221 0
	bl	find_next_bit
.LVL243:
	.loc 12 219 0
	lsl	w20, w23, w20
.LVL244:
	.loc 12 222 0
	ldr	x1, [x27,8]
	.loc 12 221 0
	mov	x19, x0
	.loc 12 222 0
	cmp	x1, x0, uxtw
	bls	.L178
.L177:
.LBB1947:
.LBB1948:
	.loc 1 164 0
	ldr	x2, [x28,184]
.LVL245:
.LBE1948:
.LBE1947:
	.loc 12 225 0
	add	w0, w20, w0
.LVL246:
.LBB1951:
.LBB1949:
	.loc 1 167 0
	cbz	w21, .L158
	.loc 1 168 0
	ldr	w3, [x2,16]
	add	w0, w0, w3
.L158:
	.loc 1 169 0
	cbz	w22, .L159
	.loc 1 170 0
	ldr	w3, [x2,20]
	add	w0, w0, w3
.L159:
	.loc 1 172 0
	ldr	x2, [x2,224]
.LVL247:
	.loc 1 174 0
	ldr	x3, [x28,120]
	.loc 1 172 0
	ldr	x2, [x2,w0,uxtw 3]
.LVL248:
	.loc 1 174 0
	ldr	x0, [x2,64]
.LVL249:
	cmp	x0, x3
	beq	.L179
.LBE1949:
.LBE1951:
	.loc 12 228 0
	add	w2, w19, 1
.LVL250:
.L180:
	.loc 12 221 0
	mov	x0, x27
	bl	find_next_bit
.LVL251:
	mov	x19, x0
	.loc 12 222 0
	ldr	x1, [x27,8]
	cmp	x1, x0, uxtw
	bhi	.L177
.L178:
	ldr	w2, [x24,8]
.LVL252:
.L157:
.LBE1946:
	.loc 12 211 0 discriminator 2
	add	w23, w23, 1
	.loc 12 211 0 is_stmt 0 discriminator 1
	cmp	w23, w2
	bcc	.L172
.LVL253:
.L155:
.LBE1954:
.LBE1956:
	.loc 1 208 0 is_stmt 1
	ldp	x19, x20, [sp,16]
	.cfi_remember_state
	.cfi_restore 20
	.cfi_restore 19
.LVL254:
	ldp	x21, x22, [sp,32]
	.cfi_restore 22
	.cfi_restore 21
.LVL255:
	ldp	x23, x24, [sp,48]
	.cfi_restore 24
	.cfi_restore 23
.LVL256:
	ldp	x25, x26, [sp,64]
	.cfi_restore 26
	.cfi_restore 25
.LVL257:
	ldp	x27, x28, [sp,80]
	.cfi_restore 28
	.cfi_restore 27
.LVL258:
	ldp	x29, x30, [sp], 96
	.cfi_restore 30
	.cfi_restore 29
	.cfi_def_cfa 31, 0
	ret
.LVL259:
.L179:
	.cfi_restore_state
.LBB1957:
.LBB1955:
.LBB1953:
.LBB1952:
.LBB1950:
	.loc 1 175 0
	mov	x1, x2
	mov	x0, x28
	mov	x2, x25
.LVL260:
	mov	w3, w21
	blr	x26
.LVL261:
	ldr	x1, [x27,8]
.LBE1950:
.LBE1952:
	.loc 12 228 0
	add	w2, w19, 1
	b	.L180
.LBE1953:
.LBE1955:
.LBE1957:
	.cfi_endproc
.LFE3136:
	.size	ufs_tagset_bt_for_each, .-ufs_tagset_bt_for_each
	.align	2
	.type	ufs_mq_tag_busy_iter, %function
ufs_mq_tag_busy_iter:
.LFB3149:
	.loc 1 454 0
	.cfi_startproc
.LVL262:
	stp	x29, x30, [sp, -64]!
	.cfi_def_cfa_offset 64
	.cfi_offset 29, -64
	.cfi_offset 30, -56
	add	x29, sp, 0
	.cfi_def_cfa_register 29
	stp	x23, x24, [sp,48]
	stp	x19, x20, [sp,16]
	stp	x21, x22, [sp,32]
	.cfi_offset 23, -16
	.cfi_offset 24, -8
	.cfi_offset 19, -48
	.cfi_offset 20, -40
	.cfi_offset 21, -32
	.cfi_offset 22, -24
	.loc 1 454 0
	mov	x24, x1
	mov	x22, x0
	.loc 1 458 0 discriminator 1
	ldr	w1, [x0,320]
.LVL263:
	.loc 1 454 0
	mov	x23, x2
	.loc 1 458 0 discriminator 1
	mov	w19, 0
.LVL264:
	cbnz	w1, .L198
	b	.L193
.LVL265:
.L189:
.LBB1958:
	.loc 1 470 0
	ldr	w0, [x21,4]
	cbnz	w0, .L200
.L184:
	.loc 1 472 0
	add	x1, x21, 56
	mov	x0, x20
	mov	x2, x24
	mov	x3, x23
	mov	w4, 0
	mov	w5, 0
	bl	ufs_tagset_bt_for_each
.LVL266:
	ldr	w1, [x22,320]
.LVL267:
.L187:
.LBE1958:
	.loc 1 458 0 discriminator 2
	add	w19, w19, 1
	.loc 1 458 0 is_stmt 0 discriminator 1
	cmp	w19, w1
	bcs	.L193
.L198:
.LBB1963:
	.loc 1 458 0 discriminator 3
	ldr	x0, [x22,312]
	ldr	x20, [x0,w19,sxtw 3]
.LBE1963:
.LBB1964:
.LBB1959:
.LBB1960:
	.loc 6 131 0 is_stmt 1
	ldr	w0, [x20,176]
.LBE1960:
.LBE1959:
	.loc 1 459 0
	ldr	x21, [x20,184]
.LBB1962:
.LBB1961:
	.loc 6 131 0 discriminator 1
	cbz	w0, .L187
	cbz	x21, .L187
.LBE1961:
.LBE1962:
	.loc 1 468 0
	ldr	w0, [x21,8]
	cbz	w0, .L189
	.loc 1 469 0
	mov	x0, x20
	add	x1, x21, 168
	mov	x2, x24
	mov	x3, x23
	mov	w4, 0
	mov	w5, 1
	bl	ufs_tagset_bt_for_each
.LVL268:
	.loc 1 470 0
	ldr	w0, [x21,4]
	cbz	w0, .L184
.L200:
	.loc 1 471 0
	mov	x0, x20
	add	x1, x21, 112
	mov	x2, x24
	mov	x3, x23
	mov	w4, 1
	mov	w5, 0
	bl	ufs_tagset_bt_for_each
.LVL269:
	b	.L184
.L193:
.LBE1964:
	.loc 1 476 0
	mov	w0, 0
	ldp	x19, x20, [sp,16]
	.cfi_restore 20
	.cfi_restore 19
.LVL270:
	ldp	x21, x22, [sp,32]
	.cfi_restore 22
	.cfi_restore 21
.LVL271:
	ldp	x23, x24, [sp,48]
	.cfi_restore 24
	.cfi_restore 23
.LVL272:
	ldp	x29, x30, [sp], 64
	.cfi_restore 30
	.cfi_restore 29
	.cfi_def_cfa 31, 0
	ret
	.cfi_endproc
.LFE3149:
	.size	ufs_mq_tag_busy_iter, .-ufs_mq_tag_busy_iter
	.align	2
	.type	ufs_tagset_bt_tags_for_each, %function
ufs_tagset_bt_tags_for_each:
.LFB3137:
	.loc 1 212 0
	.cfi_startproc
.LVL273:
	stp	x29, x30, [sp, -96]!
	.cfi_def_cfa_offset 96
	.cfi_offset 29, -96
	.cfi_offset 30, -88
	add	x29, sp, 0
	.cfi_def_cfa_register 29
	stp	x19, x20, [sp,16]
	stp	x23, x24, [sp,48]
	stp	x21, x22, [sp,32]
	stp	x25, x26, [sp,64]
	stp	x27, x28, [sp,80]
	.cfi_offset 19, -80
	.cfi_offset 20, -72
	.cfi_offset 23, -48
	.cfi_offset 24, -40
	.cfi_offset 21, -64
	.cfi_offset 22, -56
	.cfi_offset 25, -32
	.cfi_offset 26, -24
	.cfi_offset 27, -16
	.cfi_offset 28, -8
	.loc 1 212 0
	uxtb	w20, w4
.LVL274:
	uxtb	w24, w5
.LVL275:
	.loc 1 221 0
	ldr	x4, [x0,224]
	cbz	x4, .L201
.LBB1970:
.LBB1971:
	.loc 12 211 0 discriminator 1
	ldr	w21, [x1,8]
	cbz	w21, .L201
	mov	x22, x3
	mov	x23, x2
	mov	x26, x1
	mov	x28, x0
	mov	w25, 0
.LVL276:
.L208:
.LBB1972:
	.loc 12 212 0
	ubfiz	x0, x25, 6, 32
	ldr	x1, [x26,16]
	add	x27, x1, x0
	.loc 12 215 0
	ldr	x0, [x1,x0]
	cbz	x0, .L204
	.loc 12 219 0
	ldr	w21, [x26,4]
	.loc 12 218 0
	mov	x2, 0
	.loc 12 219 0
	lsl	w21, w25, w21
.LVL277:
.L207:
	.loc 12 221 0
	ldr	x1, [x27,8]
	mov	x0, x27
	bl	find_next_bit
.LVL278:
	mov	x19, x0
.LBB1973:
.LBB1974:
	.loc 1 192 0
	mov	x1, x22
.LBE1974:
.LBE1973:
	.loc 12 222 0
	ldr	x0, [x27,8]
.LBB1977:
.LBB1975:
	.loc 1 192 0
	mov	w2, w20
.LBE1975:
.LBE1977:
	.loc 12 222 0
	cmp	x0, x19, uxtw
	bls	.L224
	.loc 12 225 0
	add	w4, w21, w19
.LVL279:
.LBB1978:
.LBB1976:
	.loc 1 185 0
	cbz	w20, .L205
	.loc 1 186 0
	ldr	w0, [x28,16]
	add	w4, w4, w0
.L205:
	.loc 1 187 0
	cbz	w24, .L206
	.loc 1 188 0
	ldr	w0, [x28,20]
	add	w4, w4, w0
.L206:
	.loc 1 190 0
	ldr	x0, [x28,224]
	.loc 1 192 0
	ldr	x0, [x0,w4,uxtw 3]
	blr	x23
.LVL280:
.LBE1976:
.LBE1978:
	.loc 12 228 0
	add	w2, w19, 1
	b	.L207
.L224:
	ldr	w21, [x26,8]
.LVL281:
.L204:
.LBE1972:
	.loc 12 211 0 discriminator 2
	add	w25, w25, 1
	.loc 12 211 0 is_stmt 0 discriminator 1
	cmp	w25, w21
	bcc	.L208
.L201:
.LBE1971:
.LBE1970:
	.loc 1 223 0 is_stmt 1
	ldp	x19, x20, [sp,16]
	.cfi_restore 20
	.cfi_restore 19
.LVL282:
	ldp	x21, x22, [sp,32]
	.cfi_restore 22
	.cfi_restore 21
	ldp	x23, x24, [sp,48]
	.cfi_restore 24
	.cfi_restore 23
.LVL283:
	ldp	x25, x26, [sp,64]
	.cfi_restore 26
	.cfi_restore 25
.LVL284:
	ldp	x27, x28, [sp,80]
	.cfi_restore 28
	.cfi_restore 27
.LVL285:
	ldp	x29, x30, [sp], 96
	.cfi_restore 30
	.cfi_restore 29
	.cfi_def_cfa 31, 0
	ret
	.cfi_endproc
.LFE3137:
	.size	ufs_tagset_bt_tags_for_each, .-ufs_tagset_bt_tags_for_each
	.align	2
	.type	ufs_tagset_all_tag_busy_iter, %function
ufs_tagset_all_tag_busy_iter:
.LFB3138:
	.loc 1 226 0
	.cfi_startproc
.LVL286:
	stp	x29, x30, [sp, -48]!
	.cfi_def_cfa_offset 48
	.cfi_offset 29, -48
	.cfi_offset 30, -40
	add	x29, sp, 0
	.cfi_def_cfa_register 29
	stp	x19, x20, [sp,16]
	str	x21, [sp,32]
	.cfi_offset 19, -32
	.cfi_offset 20, -24
	.cfi_offset 21, -16
	.loc 1 226 0
	mov	x21, x1
	mov	x19, x0
	mov	x20, x2
	.loc 1 227 0
	ldr	w1, [x0,8]
.LVL287:
	cbnz	w1, .L234
.L226:
	.loc 1 229 0
	ldr	w0, [x19,4]
	cbz	w0, .L227
	.loc 1 230 0
	mov	x0, x19
	add	x1, x19, 112
	mov	x2, x21
	mov	x3, x20
	mov	w4, 1
	mov	w5, 0
	bl	ufs_tagset_bt_tags_for_each
.LVL288:
.L227:
	.loc 1 231 0
	mov	x0, x19
	add	x1, x19, 56
.LVL289:
	mov	x2, x21
	mov	x3, x20
	mov	w4, 0
	mov	w5, 0
	bl	ufs_tagset_bt_tags_for_each
.LVL290:
	.loc 1 234 0
	ldr	x21, [sp,32]
	.cfi_remember_state
	.cfi_restore 21
.LVL291:
	mov	w0, 0
	ldp	x19, x20, [sp,16]
	.cfi_restore 20
	.cfi_restore 19
.LVL292:
	ldp	x29, x30, [sp], 48
	.cfi_restore 30
	.cfi_restore 29
	.cfi_def_cfa 31, 0
	ret
.LVL293:
.L234:
	.cfi_restore_state
	.loc 1 228 0
	add	x1, x0, 168
	mov	x2, x21
	mov	x3, x20
	mov	w4, 0
	mov	w5, 1
	bl	ufs_tagset_bt_tags_for_each
.LVL294:
	b	.L226
	.cfi_endproc
.LFE3138:
	.size	ufs_tagset_all_tag_busy_iter, .-ufs_tagset_all_tag_busy_iter
	.align	2
	.type	ufs_mq_tag_put, %function
ufs_mq_tag_put:
.LFB3144:
	.loc 1 367 0
	.cfi_startproc
.LVL295:
	stp	x29, x30, [sp, -32]!
	.cfi_def_cfa_offset 32
	.cfi_offset 29, -32
	.cfi_offset 30, -24
	add	x29, sp, 0
	.cfi_def_cfa_register 29
	stp	x19, x20, [sp,16]
	.cfi_offset 19, -16
	.cfi_offset 20, -8
	.loc 1 367 0
	mov	x20, x0
	.loc 1 368 0
	ldr	x19, [x0,184]
.LVL296:
	.loc 1 370 0
	ldr	w1, [x19,20]
.LVL297:
	cmp	w1, w2
	bls	.L239
	.loc 1 375 0
	ldr	w1, [x19,16]
	.loc 1 376 0
	ldr	x3, [x3,280]
.LVL298:
	.loc 1 375 0
	cmp	w2, w1
	bcs	.L240
	.loc 1 381 0
	mov	w1, w2
	ldr	w2, [x3,64]
.LVL299:
	add	x0, x19, 56
	bl	sbitmap_queue_clear
.LVL300:
.LBB1979:
.LBB1980:
	.loc 8 114 0
	add	x2, x19, 24
#APP
// 114 "/mnt/disk/jenkins/ci/workspace/chipset_GLK_patch/opensource/component_code/vendor/huawei/extra/build/build_script/kirin_kernel_release/kernel/arch/arm64/include/asm/atomic_ll_sc.h" 1
	// atomic_sub
	prfm	pstl1strm, [x2]
1:	ldxr	w0, [x2]
	sub	w0, w0, 1
	stxr	w1, w0, [x2]
	cbnz	w1, 1b
// 0 "" 2
.LVL301:
#NO_APP
.LBE1980:
.LBE1979:
	.loc 1 383 0
	ldr	x0, [x20,120]
.LVL302:
.LBB1981:
.LBB1982:
	.loc 8 114 0
	add	x0, x0, 1164
#APP
// 114 "/mnt/disk/jenkins/ci/workspace/chipset_GLK_patch/opensource/component_code/vendor/huawei/extra/build/build_script/kirin_kernel_release/kernel/arch/arm64/include/asm/atomic_ll_sc.h" 1
	// atomic_sub
	prfm	pstl1strm, [x0]
1:	ldxr	w1, [x0]
	sub	w1, w1, 1
	stxr	w2, w1, [x0]
	cbnz	w2, 1b
// 0 "" 2
.LVL303:
#NO_APP
.L237:
.LBE1982:
.LBE1981:
	.loc 1 386 0
	mov	w0, 0
	ldp	x19, x20, [sp,16]
	.cfi_remember_state
	.cfi_restore 20
	.cfi_restore 19
.LVL304:
	ldp	x29, x30, [sp], 32
	.cfi_restore 30
	.cfi_restore 29
	.cfi_def_cfa 31, 0
	ret
.LVL305:
.L239:
	.cfi_restore_state
	.loc 1 371 0
	ldr	x3, [x3,280]
.LVL306:
	sub	w1, w2, w1
	add	x0, x19, 168
.LVL307:
	ldr	w2, [x3,64]
.LVL308:
	bl	sbitmap_queue_clear
.LVL309:
.LBB1983:
.LBB1984:
	.loc 8 114 0
	add	x2, x19, 32
#APP
// 114 "/mnt/disk/jenkins/ci/workspace/chipset_GLK_patch/opensource/component_code/vendor/huawei/extra/build/build_script/kirin_kernel_release/kernel/arch/arm64/include/asm/atomic_ll_sc.h" 1
	// atomic_sub
	prfm	pstl1strm, [x2]
1:	ldxr	w0, [x2]
	sub	w0, w0, 1
	stxr	w1, w0, [x2]
	cbnz	w1, 1b
// 0 "" 2
.LVL310:
#NO_APP
.LBE1984:
.LBE1983:
	.loc 1 373 0
	ldr	x0, [x20,120]
.LVL311:
.LBB1985:
.LBB1986:
	.loc 8 114 0
	add	x0, x0, 1172
#APP
// 114 "/mnt/disk/jenkins/ci/workspace/chipset_GLK_patch/opensource/component_code/vendor/huawei/extra/build/build_script/kirin_kernel_release/kernel/arch/arm64/include/asm/atomic_ll_sc.h" 1
	// atomic_sub
	prfm	pstl1strm, [x0]
1:	ldxr	w1, [x0]
	sub	w1, w1, 1
	stxr	w2, w1, [x0]
	cbnz	w2, 1b
// 0 "" 2
.LVL312:
#NO_APP
.LBE1986:
.LBE1985:
	.loc 1 386 0
	mov	w0, 0
	ldp	x19, x20, [sp,16]
	.cfi_remember_state
	.cfi_restore 19
	.cfi_restore 20
.LVL313:
	ldp	x29, x30, [sp], 32
	.cfi_restore 29
	.cfi_restore 30
	.cfi_def_cfa 31, 0
	ret
.LVL314:
.L240:
	.cfi_restore_state
	.loc 1 376 0
	sub	w1, w2, w1
	ldr	w2, [x3,64]
.LVL315:
	add	x0, x19, 112
.LVL316:
	bl	sbitmap_queue_clear
.LVL317:
.LBB1987:
.LBB1988:
	.loc 8 114 0
	add	x2, x19, 28
#APP
// 114 "/mnt/disk/jenkins/ci/workspace/chipset_GLK_patch/opensource/component_code/vendor/huawei/extra/build/build_script/kirin_kernel_release/kernel/arch/arm64/include/asm/atomic_ll_sc.h" 1
	// atomic_sub
	prfm	pstl1strm, [x2]
1:	ldxr	w0, [x2]
	sub	w0, w0, 1
	stxr	w1, w0, [x2]
	cbnz	w1, 1b
// 0 "" 2
.LVL318:
#NO_APP
.LBE1988:
.LBE1987:
	.loc 1 378 0
	ldr	x0, [x20,120]
.LVL319:
.LBB1989:
.LBB1990:
	.loc 8 114 0
	add	x0, x0, 1168
#APP
// 114 "/mnt/disk/jenkins/ci/workspace/chipset_GLK_patch/opensource/component_code/vendor/huawei/extra/build/build_script/kirin_kernel_release/kernel/arch/arm64/include/asm/atomic_ll_sc.h" 1
	// atomic_sub
	prfm	pstl1strm, [x0]
1:	ldxr	w1, [x0]
	sub	w1, w1, 1
	stxr	w2, w1, [x0]
	cbnz	w2, 1b
// 0 "" 2
.LVL320:
#NO_APP
	b	.L237
.LBE1990:
.LBE1989:
	.cfi_endproc
.LFE3144:
	.size	ufs_mq_tag_put, .-ufs_mq_tag_put
	.align	2
	.type	ufs_tagset_bt_get, %function
ufs_tagset_bt_get:
.LFB3139:
	.loc 1 237 0
	.cfi_startproc
.LVL321:
	stp	x29, x30, [sp, -128]!
	.cfi_def_cfa_offset 128
	.cfi_offset 29, -128
	.cfi_offset 30, -120
.LBB1991:
.LBB1992:
	.loc 4 20 0
#APP
// 20 "/mnt/disk/jenkins/ci/workspace/chipset_GLK_patch/opensource/component_code/vendor/huawei/extra/build/build_script/kirin_kernel_release/kernel/arch/arm64/include/asm/current.h" 1
	mrs x4, sp_el0
// 0 "" 2
.LVL322:
#NO_APP
.LBE1992:
.LBE1991:
	.loc 1 237 0
	add	x29, sp, 0
	.cfi_def_cfa_register 29
	stp	x23, x24, [sp,48]
	.cfi_offset 23, -80
	.cfi_offset 24, -72
	adrp	x24, __stack_chk_guard
	.loc 1 239 0
	add	x3, x29, 104
	.loc 1 237 0
	stp	x21, x22, [sp,32]
	.loc 1 239 0
	stp	xzr, xzr, [x29,80]
	.loc 1 237 0
	ldr	x5, [x24,#:lo12:__stack_chk_guard]
	.cfi_offset 21, -96
	.cfi_offset 22, -88
	mov	x22, x0
	.loc 1 239 0
	adrp	x0, autoremove_wake_function
.LVL323:
	.loc 1 237 0
	str	x5, [x29,120]
	.loc 1 239 0
	add	x0, x0, :lo12:autoremove_wake_function
	str	x4, [x29,88]
	.loc 1 237 0
	stp	x19, x20, [sp,16]
	stp	x25, x26, [sp,64]
	.cfi_offset 19, -112
	.cfi_offset 20, -104
	.cfi_offset 25, -64
	.cfi_offset 26, -56
	.loc 1 239 0
	str	x0, [x29,96]
	.loc 1 237 0
	mov	x21, x2
	.loc 1 239 0
	str	x3, [x29,104]
	.loc 1 237 0
	mov	x23, x1
	.loc 1 239 0
	str	x3, [x29,112]
	.loc 1 242 0
	cbz	x2, .L244
	.loc 1 244 0
	mov	x0, x1
	bl	__sbitmap_queue_get
.LVL324:
	.loc 1 245 0
	cmn	w0, #1
	beq	.L273
.LVL325:
.L243:
	.loc 1 299 0
	ldr	x2, [x29,120]
	ldr	x1, [x24,#:lo12:__stack_chk_guard]
	cmp	x2, x1
	bne	.L274
	ldp	x19, x20, [sp,16]
	.cfi_remember_state
	.cfi_restore 20
	.cfi_restore 19
	ldp	x21, x22, [sp,32]
	.cfi_restore 22
	.cfi_restore 21
.LVL326:
	ldp	x23, x24, [sp,48]
	.cfi_restore 24
	.cfi_restore 23
.LVL327:
	ldp	x25, x26, [sp,64]
	.cfi_restore 26
	.cfi_restore 25
.LVL328:
	ldp	x29, x30, [sp], 128
	.cfi_restore 30
	.cfi_restore 29
	.cfi_def_cfa 31, 0
	ret
.LVL329:
.L273:
	.cfi_restore_state
	.loc 1 248 0
	ldr	w0, [x22,16]
	tbnz	x0, 0, .L244
.LBB1993:
.LBB1994:
.LBB1995:
.LBB1996:
.LBB1997:
	.loc 2 247 0 discriminator 4
	ldr	w19, [x21,180]
.LBE1997:
.LBE1996:
.LBE1995:
.LBB1998:
.LBB1999:
.LBB2000:
.LBB2001:
.LBB2002:
.LBB2003:
	.loc 8 292 0
	add	x4, x21, 180
.LBE2003:
.LBE2002:
.LBE2001:
.LBE2000:
.LBB2007:
.LBB2008:
.LBB2009:
	.loc 2 247 0 discriminator 4
	ldr	w25, [x21,180]
.LBE2009:
.LBE2008:
.LBE2007:
.LBE1999:
.LBE1998:
	.loc 12 361 0 discriminator 5
	ldr	x20, [x23,40]
	sbfiz	x0, x19, 6, 32
.LBB2015:
.LBB2013:
.LBB2010:
.LBB2011:
	.loc 12 340 0
	add	w26, w25, 1
.LBE2011:
.LBE2010:
.LBE2013:
.LBE2015:
	.loc 12 361 0 discriminator 5
	add	x20, x20, x0
.LVL330:
.LBB2016:
.LBB2014:
.LBB2012:
	.loc 12 347 0
	and	x1, x26, 7
	sxtw	x0, w25
.LBB2006:
.LBB2005:
.LBB2004:
	.loc 8 292 0
#APP
// 292 "/mnt/disk/jenkins/ci/workspace/chipset_GLK_patch/opensource/component_code/vendor/huawei/extra/build/build_script/kirin_kernel_release/kernel/arch/arm64/include/asm/atomic_ll_sc.h" 1
		prfm	pstl1strm, [x4]
1:	ldxr	w3, [x4]
	eor	w2, w3, w0
	cbnz	w2, 2f
	stlxr	w2, w1, [x4]
	cbnz	w2, 1b
	dmb ish
	mov	w3, w0
2:
// 0 "" 2
.LVL331:
#NO_APP
.LBE2004:
.LBE2005:
.LBE2006:
.LBE2012:
.LBE2014:
.LBE2016:
.LBE1994:
.LBE1993:
.LBB2017:
.LBB2018:
	.loc 6 95 0
	adrp	x26, .LC8
.LBE2018:
.LBE2017:
.LBB2030:
.LBB2031:
.LBB2032:
.LBB2033:
	.loc 6 82 0
	adrp	x25, cpu_number
	add	x25, x25, :lo12:cpu_number
.LVL332:
.LBE2033:
.LBE2032:
.LBE2031:
.LBE2030:
.LBB2056:
.LBB2027:
	.loc 6 95 0
	add	x26, x26, :lo12:.LC8
.LBE2027:
.LBE2056:
.LBB2057:
.LBB2052:
.LBB2045:
.LBB2036:
	.loc 6 82 0
	b	.L258
.LVL333:
.L255:
.LBE2036:
.LBE2045:
.LBE2052:
.LBE2057:
	.loc 1 293 0
	mov	x0, x20
	add	x1, x29, 80
	bl	finish_wait
.LVL334:
.LBB2058:
.LBB2059:
.LBB2060:
.LBB2061:
.LBB2062:
	.loc 2 247 0 discriminator 4
	ldr	w20, [x19,180]
.LBE2062:
.LBE2061:
.LBE2060:
.LBB2063:
.LBB2064:
.LBB2065:
.LBB2066:
.LBB2067:
	ldr	w0, [x19,180]
.LBE2067:
.LBE2066:
.LBE2065:
.LBB2068:
.LBB2069:
.LBB2070:
.LBB2071:
	.loc 8 292 0
	add	x4, x19, 180
.LBE2071:
.LBE2070:
.LBE2069:
.LBE2068:
.LBE2064:
.LBE2063:
	.loc 12 361 0 discriminator 5
	ldr	x1, [x23,40]
	sbfiz	x20, x20, 6, 32
.LBB2080:
.LBB2078:
.LBB2075:
.LBB2076:
	.loc 12 340 0
	add	w21, w0, 1
.LBE2076:
.LBE2075:
.LBE2078:
.LBE2080:
	.loc 12 361 0 discriminator 5
	add	x20, x1, x20
.LVL335:
.LBB2081:
.LBB2079:
.LBB2077:
	.loc 12 347 0
	sxtw	x0, w0
	and	x1, x21, 7
.LBB2074:
.LBB2073:
.LBB2072:
	.loc 8 292 0
#APP
// 292 "/mnt/disk/jenkins/ci/workspace/chipset_GLK_patch/opensource/component_code/vendor/huawei/extra/build/build_script/kirin_kernel_release/kernel/arch/arm64/include/asm/atomic_ll_sc.h" 1
		prfm	pstl1strm, [x4]
1:	ldxr	w3, [x4]
	eor	w2, w3, w0
	cbnz	w2, 2f
	stlxr	w2, w1, [x4]
	cbnz	w2, 1b
	dmb ish
	mov	w3, w0
2:
// 0 "" 2
.LVL336:
#NO_APP
.LBE2072:
.LBE2073:
.LBE2074:
.LBE2077:
.LBE2079:
.LBE2081:
.LBE2059:
.LBE2058:
.LBB2082:
.LBB2083:
	.loc 6 53 0
	mov	x21, x19
.LVL337:
.L258:
.LBE2083:
.LBE2082:
	.loc 1 253 0
	add	x20, x20, 8
.LVL338:
	add	x1, x29, 80
	mov	w2, 2
.LVL339:
	mov	x0, x20
	bl	prepare_to_wait
.LVL340:
	.loc 1 255 0
	mov	x0, x23
	bl	__sbitmap_queue_get
.LVL341:
	.loc 1 256 0
	cmn	w0, #1
	.loc 1 255 0
	mov	w19, w0
	.loc 1 256 0
	bne	.L245
	.loc 1 265 0
	cbz	x21, .L246
	.loc 1 266 0
	mov	x0, x21
	mov	w1, 0
	bl	blk_mq_run_hw_queue
.LVL342:
.L246:
	.loc 1 272 0
	mov	x0, x23
	bl	__sbitmap_queue_get
.LVL343:
	.loc 1 273 0
	cmn	w0, #1
	.loc 1 272 0
	mov	w19, w0
	.loc 1 273 0
	bne	.L245
	.loc 1 276 0
	ldr	x0, [x22,24]
.LBB2086:
.LBB2028:
	.loc 6 89 0
	ldr	x1, [x0,304]
	ldr	x1, [x1,13024]
	cbz	x1, .L250
	.loc 6 89 0 is_stmt 0 discriminator 1
	ldr	x1, [x1,80]
	cbz	x1, .L250
	.loc 6 90 0 is_stmt 1
	blr	x1
.LVL344:
	mov	w2, w0
.LVL345:
	.loc 6 91 0
	cbz	w0, .L252
	.loc 6 92 0
	cmn	w0, #1
	bne	.L275
.L250:
	.loc 6 93 0
.LBB2019:
.LBB2020:
.LBB2021:
.LBB2022:
.LBB2023:
	.loc 4 20 0
#APP
// 20 "/mnt/disk/jenkins/ci/workspace/chipset_GLK_patch/opensource/component_code/vendor/huawei/extra/build/build_script/kirin_kernel_release/kernel/arch/arm64/include/asm/current.h" 1
	mrs x1, sp_el0
// 0 "" 2
.LVL346:
#NO_APP
.LBE2023:
.LBE2022:
.LBE2021:
	.loc 5 68 0
	ldr	w0, [x1,24]
	sub	w0, w0, #1
	str	w0, [x1,24]
	cbnz	w0, .L252
.LBB2024:
.LBB2025:
.LBB2026:
	.loc 7 105 0
	ldr	x0, [x1]
.LBE2026:
.LBE2025:
.LBE2024:
	.loc 5 68 0 discriminator 1
	tbnz	x0, 1, .L276
.L252:
.LBE2020:
.LBE2019:
.LBE2028:
.LBE2086:
.LBB2087:
.LBB2088:
	.file 13 "/mnt/disk/jenkins/ci/workspace/chipset_GLK_patch/opensource/component_code/vendor/huawei/extra/build/build_script/kirin_kernel_release/kernel/include/linux/sched.h"
	.loc 13 538 0
	mov	x0, 9223372036854775807
	bl	io_schedule_timeout
.LVL347:
.LBE2088:
.LBE2087:
.LBB2089:
.LBB2053:
.LBB2046:
.LBB2037:
.LBB2038:
.LBB2039:
.LBB2040:
.LBB2041:
	.loc 4 20 0
#APP
// 20 "/mnt/disk/jenkins/ci/workspace/chipset_GLK_patch/opensource/component_code/vendor/huawei/extra/build/build_script/kirin_kernel_release/kernel/arch/arm64/include/asm/current.h" 1
	mrs x1, sp_el0
// 0 "" 2
.LVL348:
#NO_APP
.LBE2041:
.LBE2040:
.LBE2039:
	.loc 5 53 0
	ldr	w0, [x1,24]
.LBE2038:
.LBE2037:
.LBE2046:
.LBE2053:
.LBE2089:
	.loc 1 280 0
	ldr	x2, [x22]
.LBB2090:
.LBB2054:
.LBB2047:
.LBB2043:
.LBB2042:
	.loc 5 53 0
	add	w0, w0, 1
	str	w0, [x1,24]
.LBE2042:
.LBE2043:
	.loc 6 82 0
.LBB2044:
.LBB2034:
.LBB2035:
	.file 14 "/mnt/disk/jenkins/ci/workspace/chipset_GLK_patch/opensource/component_code/vendor/huawei/extra/build/build_script/kirin_kernel_release/kernel/arch/arm64/include/asm/percpu.h"
	.loc 14 34 0
#APP
// 34 "/mnt/disk/jenkins/ci/workspace/chipset_GLK_patch/opensource/component_code/vendor/huawei/extra/build/build_script/kirin_kernel_release/kernel/arch/arm64/include/asm/percpu.h" 1
	mrs x1, tpidr_el1
// 0 "" 2
.LVL349:
#NO_APP
.LBE2035:
.LBE2034:
.LBE2044:
.LBE2047:
.LBB2048:
.LBB2049:
	.loc 6 71 0
	ldr	w3, [x1,x25]
	adrp	x1, __per_cpu_offset
.LVL350:
	add	x1, x1, :lo12:__per_cpu_offset
	ldr	x0, [x2,296]
.LBE2049:
.LBE2048:
.LBE2054:
.LBE2090:
	.loc 1 281 0
	ldr	x2, [x22]
.LVL351:
.LBB2091:
.LBB2055:
.LBB2051:
.LBB2050:
	.loc 6 71 0
	ldr	x1, [x1,x3,lsl 3]
	add	x0, x0, x1
.LVL352:
.LBE2050:
.LBE2051:
.LBE2055:
.LBE2091:
	.loc 1 280 0
	str	x0, [x22,24]
.LBB2092:
.LBB2084:
	.loc 6 53 0
	ldr	x1, [x2,288]
.LBE2084:
.LBE2092:
	.loc 1 281 0
	ldr	w3, [x0,64]
.LBB2093:
.LBB2085:
	.loc 6 53 0
	ldr	x0, [x2,312]
	ldr	w1, [x1,w3,sxtw 2]
	ldr	x19, [x0,w1,uxtw 3]
.LBE2085:
.LBE2093:
	.loc 1 281 0
	str	x19, [x22,32]
	.loc 1 282 0
	cmp	x21, x19
	beq	.L255
	.loc 1 283 0
	ldr	x0, [x22,8]
	.loc 1 285 0
	ldr	x23, [x19,184]
.LVL353:
	.loc 1 283 0
	tbz	x0, 3, .L256
	.loc 1 284 0
	tbnz	x0, 11, .L257
	.loc 1 285 0
	add	x23, x23, 56
.LVL354:
	b	.L255
.LVL355:
.L245:
	.loc 1 297 0
	mov	x0, x20
	add	x1, x29, 80
	bl	finish_wait
.LVL356:
	.loc 1 298 0
	mov	w0, w19
	b	.L243
.LVL357:
.L276:
.LBB2094:
.LBB2029:
	.loc 6 93 0 discriminator 3
	bl	preempt_schedule
.LVL358:
	b	.L252
.LVL359:
.L275:
	.loc 6 95 0
	adrp	x1, .LANCHOR1
	mov	x0, x26
.LVL360:
	add	x1, x1, :lo12:.LANCHOR1
	bl	printk
.LVL361:
	b	.L252
.LVL362:
.L244:
.LBE2029:
.LBE2094:
	.loc 1 243 0
	mov	w0, -1
	b	.L243
.LVL363:
.L256:
	.loc 1 290 0
	add	x23, x23, 112
.LVL364:
	b	.L255
.LVL365:
.L257:
	.loc 1 287 0
	add	x23, x23, 168
.LVL366:
	b	.L255
.LVL367:
.L274:
	.loc 1 299 0
	bl	__stack_chk_fail
.LVL368:
	.cfi_endproc
.LFE3139:
	.size	ufs_tagset_bt_get, .-ufs_tagset_bt_get
	.align	2
	.type	ufs_mq_tag_get, %function
ufs_mq_tag_get:
.LFB3143:
	.loc 1 355 0
	.cfi_startproc
.LVL369:
	stp	x29, x30, [sp, -32]!
	.cfi_def_cfa_offset 32
	.cfi_offset 29, -32
	.cfi_offset 30, -24
	add	x29, sp, 0
	.cfi_def_cfa_register 29
	stp	x19, x20, [sp,16]
	.cfi_offset 19, -16
	.cfi_offset 20, -8
	.loc 1 355 0
	mov	x20, x1
	.loc 1 356 0
	mov	x1, 2056
.LVL370:
	ldr	x2, [x0,8]
	.loc 1 355 0
	mov	x19, x0
	.loc 1 356 0
	and	x1, x2, x1
.LVL371:
	.loc 1 357 0
	cmp	x1, 8
	bne	.L278
.LBB2095:
.LBB2096:
	.loc 1 304 0
	ldr	x1, [x0,32]
.LVL372:
	mov	x2, x1
	ldr	x1, [x1,184]
	add	x1, x1, 56
	bl	ufs_tagset_bt_get
.LVL373:
	.loc 1 305 0
	tbnz	w0, #31, .L287
	.loc 1 306 0
	ldr	x1, [x19,32]
	ldr	x1, [x1,184]
.LBB2097:
.LBB2098:
	.loc 8 113 0
	add	x1, x1, 24
#APP
// 113 "/mnt/disk/jenkins/ci/workspace/chipset_GLK_patch/opensource/component_code/vendor/huawei/extra/build/build_script/kirin_kernel_release/kernel/arch/arm64/include/asm/atomic_ll_sc.h" 1
	// atomic_add
	prfm	pstl1strm, [x1]
1:	ldxr	w2, [x1]
	add	w2, w2, 1
	stxr	w3, w2, [x1]
	cbnz	w3, 1b
// 0 "" 2
.LVL374:
#NO_APP
.LBE2098:
.LBE2097:
	.loc 1 307 0
	ldr	x1, [x19,32]
	ldr	x1, [x1,120]
.LBB2099:
.LBB2100:
	.loc 8 113 0
	add	x1, x1, 1164
#APP
// 113 "/mnt/disk/jenkins/ci/workspace/chipset_GLK_patch/opensource/component_code/vendor/huawei/extra/build/build_script/kirin_kernel_release/kernel/arch/arm64/include/asm/atomic_ll_sc.h" 1
	// atomic_add
	prfm	pstl1strm, [x1]
1:	ldxr	w2, [x1]
	add	w2, w2, 1
	stxr	w3, w2, [x1]
	cbnz	w3, 1b
// 0 "" 2
.LVL375:
#NO_APP
.L286:
.LBE2100:
.LBE2099:
.LBE2096:
.LBE2095:
	.loc 1 362 0
	str	w0, [x20]
.LVL376:
	.loc 1 364 0
	mov	w0, 0
	ldp	x19, x20, [sp,16]
	.cfi_remember_state
	.cfi_restore 20
	.cfi_restore 19
.LVL377:
	ldp	x29, x30, [sp], 32
	.cfi_restore 30
	.cfi_restore 29
	.cfi_def_cfa 31, 0
	ret
.LVL378:
.L287:
	.cfi_restore_state
.LBB2102:
.LBB2101:
	.loc 1 305 0
	mov	w0, -1
.LVL379:
.LBE2101:
.LBE2102:
	.loc 1 362 0
	str	w0, [x20]
	.loc 1 364 0
	mov	w0, 0
	ldp	x19, x20, [sp,16]
	.cfi_remember_state
	.cfi_restore 19
	.cfi_restore 20
.LVL380:
	ldp	x29, x30, [sp], 32
	.cfi_restore 29
	.cfi_restore 30
	.cfi_def_cfa 31, 0
	ret
.LVL381:
.L278:
	.cfi_restore_state
.LBB2103:
.LBB2104:
	.loc 1 337 0
	ldr	x2, [x0,32]
.LBE2104:
.LBE2103:
	.loc 1 359 0
	cmp	x1, 2056
.LBB2111:
.LBB2109:
	.loc 1 337 0
	ldr	x1, [x2,184]
.LVL382:
.LBE2109:
.LBE2111:
	.loc 1 359 0
	beq	.L289
.LBB2112:
.LBB2113:
	.loc 1 316 0
	ldr	w3, [x1,4]
	cbz	w3, .L287
	.loc 1 324 0
	add	x1, x1, 112
	bl	ufs_tagset_bt_get
.LVL383:
	.loc 1 325 0
	tbnz	w0, #31, .L287
	.loc 1 326 0
	ldr	x1, [x19,32]
	ldr	x1, [x1,184]
.LBB2114:
.LBB2115:
	.loc 8 113 0
	add	x1, x1, 28
#APP
// 113 "/mnt/disk/jenkins/ci/workspace/chipset_GLK_patch/opensource/component_code/vendor/huawei/extra/build/build_script/kirin_kernel_release/kernel/arch/arm64/include/asm/atomic_ll_sc.h" 1
	// atomic_add
	prfm	pstl1strm, [x1]
1:	ldxr	w2, [x1]
	add	w2, w2, 1
	stxr	w3, w2, [x1]
	cbnz	w3, 1b
// 0 "" 2
.LVL384:
#NO_APP
.LBE2115:
.LBE2114:
	.loc 1 327 0
	ldr	x1, [x19,32]
	ldr	x1, [x1,120]
.LBB2116:
.LBB2117:
	.loc 8 113 0
	add	x1, x1, 1168
#APP
// 113 "/mnt/disk/jenkins/ci/workspace/chipset_GLK_patch/opensource/component_code/vendor/huawei/extra/build/build_script/kirin_kernel_release/kernel/arch/arm64/include/asm/atomic_ll_sc.h" 1
	// atomic_add
	prfm	pstl1strm, [x1]
1:	ldxr	w2, [x1]
	add	w2, w2, 1
	stxr	w3, w2, [x1]
	cbnz	w3, 1b
// 0 "" 2
.LVL385:
#NO_APP
.LBE2117:
.LBE2116:
	.loc 1 328 0
	ldr	x1, [x19,32]
	ldr	x1, [x1,184]
	ldr	w1, [x1,16]
	add	w0, w0, w1
.LVL386:
	b	.L286
.LVL387:
.L289:
.LBE2113:
.LBE2112:
.LBB2118:
.LBB2110:
	.loc 1 337 0
	ldr	w3, [x1,8]
	cbz	w3, .L287
	.loc 1 345 0
	add	x1, x1, 168
	bl	ufs_tagset_bt_get
.LVL388:
	.loc 1 346 0
	tbnz	w0, #31, .L287
	.loc 1 347 0
	ldr	x1, [x19,32]
	ldr	x1, [x1,184]
.LBB2105:
.LBB2106:
	.loc 8 113 0
	add	x1, x1, 32
#APP
// 113 "/mnt/disk/jenkins/ci/workspace/chipset_GLK_patch/opensource/component_code/vendor/huawei/extra/build/build_script/kirin_kernel_release/kernel/arch/arm64/include/asm/atomic_ll_sc.h" 1
	// atomic_add
	prfm	pstl1strm, [x1]
1:	ldxr	w2, [x1]
	add	w2, w2, 1
	stxr	w3, w2, [x1]
	cbnz	w3, 1b
// 0 "" 2
.LVL389:
#NO_APP
.LBE2106:
.LBE2105:
	.loc 1 348 0
	ldr	x1, [x19,32]
	ldr	x1, [x1,120]
.LBB2107:
.LBB2108:
	.loc 8 113 0
	add	x1, x1, 1172
#APP
// 113 "/mnt/disk/jenkins/ci/workspace/chipset_GLK_patch/opensource/component_code/vendor/huawei/extra/build/build_script/kirin_kernel_release/kernel/arch/arm64/include/asm/atomic_ll_sc.h" 1
	// atomic_add
	prfm	pstl1strm, [x1]
1:	ldxr	w2, [x1]
	add	w2, w2, 1
	stxr	w3, w2, [x1]
	cbnz	w3, 1b
// 0 "" 2
.LVL390:
#NO_APP
.LBE2108:
.LBE2107:
	.loc 1 349 0
	ldr	x1, [x19,32]
	ldr	x1, [x1,184]
	ldr	w1, [x1,20]
	add	w0, w0, w1
.LVL391:
	b	.L286
.LBE2110:
.LBE2118:
	.cfi_endproc
.LFE3143:
	.size	ufs_mq_tag_get, .-ufs_mq_tag_get
	.align	2
	.type	ufs_mq_req_complete, %function
ufs_mq_req_complete:
.LFB3208:
	.loc 1 1521 0
	.cfi_startproc
.LVL392:
	stp	x29, x30, [sp, -32]!
	.cfi_def_cfa_offset 32
	.cfi_offset 29, -32
	.cfi_offset 30, -24
	uxtb	w2, w2
	add	x29, sp, 0
	.cfi_def_cfa_register 29
	stp	x19, x20, [sp,16]
	.cfi_offset 19, -16
	.cfi_offset 20, -8
	.loc 1 1521 0
	mov	x19, x0
	.loc 1 1522 0
	ldr	x20, [x1,13016]
.LVL393:
	.loc 1 1527 0 discriminator 1
	cbz	w2, .L291
	.loc 1 1527 0 is_stmt 0
	ldr	w0, [x0,84]
.LVL394:
	.loc 1 1527 0 discriminator 1
	cmp	w0, 1
	bne	.L291
	ldr	x0, [x19,88]
.LBB2119:
.LBB2120:
	.loc 1 697 0 is_stmt 1
	tbz	x0, 3, .L292
.LVL395:
	.loc 1 698 0
	tbnz	x0, 11, .L307
.LBB2121:
.LBB2122:
	.loc 8 114 0
	add	x2, x20, 12
.LVL396:
#APP
// 114 "/mnt/disk/jenkins/ci/workspace/chipset_GLK_patch/opensource/component_code/vendor/huawei/extra/build/build_script/kirin_kernel_release/kernel/arch/arm64/include/asm/atomic_ll_sc.h" 1
	// atomic_sub
	prfm	pstl1strm, [x2]
1:	ldxr	w0, [x2]
	sub	w0, w0, 1
	stxr	w1, w0, [x2]
	cbnz	w1, 1b
// 0 "" 2
.LVL397:
#NO_APP
.L294:
.LBE2122:
.LBE2121:
	.loc 1 712 0
	bl	ktime_get
.LVL398:
	str	x0, [x20,352]
.LVL399:
.L291:
.LBE2120:
.LBE2119:
	.loc 1 1529 0
	ldr	x3, [x19,72]
.LBB2128:
	adrp	x0, cpu_number
	add	x0, x0, :lo12:cpu_number
.LVL400:
.LBB2129:
.LBB2130:
	.loc 14 34 0
#APP
// 34 "/mnt/disk/jenkins/ci/workspace/chipset_GLK_patch/opensource/component_code/vendor/huawei/extra/build/build_script/kirin_kernel_release/kernel/arch/arm64/include/asm/percpu.h" 1
	mrs x2, tpidr_el1
// 0 "" 2
.LVL401:
#NO_APP
.LBE2130:
.LBE2129:
.LBE2128:
	.loc 1 1529 0
	ldr	w1, [x3,64]
.LVL402:
.LBB2131:
.LBE2131:
	ldr	w0, [x2,x0]
.LVL403:
	cmp	w1, w0
	beq	.L295
.LBB2132:
.LBB2133:
.LBB2134:
.LBB2135:
	.loc 7 105 0
	add	w0, w1, 63
	cmp	w1, wzr
	csel	w0, w0, w1, lt
	adrp	x2, __cpu_online_mask
.LVL404:
	asr	w0, w0, 6
	add	x2, x2, :lo12:__cpu_online_mask
	ldr	x0, [x2,w0,sxtw 3]
	lsr	x1, x0, x1
.LBE2135:
.LBE2134:
.LBE2133:
.LBE2132:
	.loc 1 1529 0 discriminator 1
	tbnz	x1, 0, .L308
.LVL405:
.L295:
.LBB2136:
.LBB2137:
.LBB2138:
.LBB2139:
	.file 15 "/mnt/disk/jenkins/ci/workspace/chipset_GLK_patch/opensource/component_code/vendor/huawei/extra/build/build_script/kirin_kernel_release/kernel/arch/arm64/include/asm/irqflags.h"
	.loc 15 29 0
#APP
// 29 "/mnt/disk/jenkins/ci/workspace/chipset_GLK_patch/opensource/component_code/vendor/huawei/extra/build/build_script/kirin_kernel_release/kernel/arch/arm64/include/asm/irqflags.h" 1
	mrs	x20, daif		// arch_local_irq_save
msr	daifset, #2
// 0 "" 2
.LVL406:
#NO_APP
.LBE2139:
.LBE2138:
.LBB2140:
	.loc 1 1448 0
	adrp	x0, blk_cpu_done
.LBE2140:
	.loc 1 1449 0
	add	x1, x19, 136
.LBB2143:
.LBB2141:
.LBB2142:
	.loc 14 34 0
#APP
// 34 "/mnt/disk/jenkins/ci/workspace/chipset_GLK_patch/opensource/component_code/vendor/huawei/extra/build/build_script/kirin_kernel_release/kernel/arch/arm64/include/asm/percpu.h" 1
	mrs x3, tpidr_el1
// 0 "" 2
.LVL407:
#NO_APP
.LBE2142:
.LBE2141:
	.loc 1 1448 0
	add	x0, x0, :lo12:blk_cpu_done
.LVL408:
	add	x2, x3, x0
.LVL409:
.LBE2143:
.LBB2144:
.LBB2145:
	.loc 3 92 0
	ldr	x4, [x2,8]
.LBB2146:
.LBB2147:
	.loc 3 62 0
	str	x1, [x2,8]
	.loc 3 63 0
	str	x2, [x19,136]
	.loc 3 64 0
	str	x4, [x19,144]
.LBB2148:
.LBB2149:
.LBB2150:
	.loc 2 276 0
	str	x1, [x4]
.LBE2150:
.LBE2149:
.LBE2148:
.LBE2147:
.LBE2146:
.LBE2145:
.LBE2144:
	.loc 1 1450 0
	ldr	x0, [x3,x0]
.LVL410:
	cmp	x1, x0
	bne	.L297
	.loc 1 1451 0
	mov	w0, 4
	bl	raise_softirq_irqoff
.LVL411:
.L297:
.LBB2151:
.LBB2152:
	.loc 15 81 0
#APP
// 81 "/mnt/disk/jenkins/ci/workspace/chipset_GLK_patch/opensource/component_code/vendor/huawei/extra/build/build_script/kirin_kernel_release/kernel/arch/arm64/include/asm/irqflags.h" 1
	msr	daif, x20		// arch_local_irq_restore
// 0 "" 2
#NO_APP
.LBE2152:
.LBE2151:
.LBE2137:
.LBE2136:
	.loc 1 1538 0
	mov	w0, 0
	ldp	x19, x20, [sp,16]
	.cfi_remember_state
	.cfi_restore 20
	.cfi_restore 19
.LVL412:
	ldp	x29, x30, [sp], 32
	.cfi_restore 30
	.cfi_restore 29
	.cfi_def_cfa 31, 0
	ret
.LVL413:
.L308:
	.cfi_restore_state
	.loc 1 1530 0
	adrp	x0, __ufs_mq_complete_request_remote
	.loc 1 1531 0
	str	x19, [x19,48]
	.loc 1 1532 0
	str	wzr, [x19,56]
	.loc 1 1530 0
	add	x0, x0, :lo12:__ufs_mq_complete_request_remote
	str	x0, [x19,40]
	.loc 1 1533 0
	add	x1, x19, 32
	ldr	w0, [x3,64]
	bl	smp_call_function_single_async
.LVL414:
	.loc 1 1538 0
	mov	w0, 0
	ldp	x19, x20, [sp,16]
	.cfi_remember_state
	.cfi_restore 19
	.cfi_restore 20
.LVL415:
	ldp	x29, x30, [sp], 32
	.cfi_restore 29
	.cfi_restore 30
	.cfi_def_cfa 31, 0
	ret
.LVL416:
.L292:
	.cfi_restore_state
.LBB2153:
.LBB2127:
.LBB2123:
.LBB2124:
	.loc 8 114 0
	add	x2, x20, 16
.LVL417:
#APP
// 114 "/mnt/disk/jenkins/ci/workspace/chipset_GLK_patch/opensource/component_code/vendor/huawei/extra/build/build_script/kirin_kernel_release/kernel/arch/arm64/include/asm/atomic_ll_sc.h" 1
	// atomic_sub
	prfm	pstl1strm, [x2]
1:	ldxr	w0, [x2]
	sub	w0, w0, 1
	stxr	w1, w0, [x2]
	cbnz	w1, 1b
// 0 "" 2
.LVL418:
#NO_APP
.LBE2124:
.LBE2123:
	.loc 1 720 0
	bl	ktime_get
.LVL419:
	str	x0, [x20,360]
	b	.L291
.LVL420:
.L307:
.LBB2125:
.LBB2126:
	.loc 8 114 0
	add	x2, x20, 8
.LVL421:
#APP
// 114 "/mnt/disk/jenkins/ci/workspace/chipset_GLK_patch/opensource/component_code/vendor/huawei/extra/build/build_script/kirin_kernel_release/kernel/arch/arm64/include/asm/atomic_ll_sc.h" 1
	// atomic_sub
	prfm	pstl1strm, [x2]
1:	ldxr	w0, [x2]
	sub	w0, w0, 1
	stxr	w1, w0, [x2]
	cbnz	w1, 1b
// 0 "" 2
.LVL422:
#NO_APP
	b	.L294
.LBE2126:
.LBE2125:
.LBE2127:
.LBE2153:
	.cfi_endproc
.LFE3208:
	.size	ufs_mq_req_complete, .-ufs_mq_req_complete
	.align	2
	.type	ufs_mq_req_timeout_handler, %function
ufs_mq_req_timeout_handler:
.LFB3212:
	.loc 1 1567 0
	.cfi_startproc
.LVL423:
	stp	x29, x30, [sp, -48]!
	.cfi_def_cfa_offset 48
	.cfi_offset 29, -48
	.cfi_offset 30, -40
	mov	x1, x0
.LVL424:
	add	x29, sp, 0
	.cfi_def_cfa_register 29
	stp	x19, x20, [sp,16]
	str	x21, [sp,32]
	.cfi_offset 19, -32
	.cfi_offset 20, -24
	.cfi_offset 21, -16
.LBB2154:
.LBB2155:
	.loc 7 105 0
	ldr	x0, [x0,96]
.LVL425:
.LBE2155:
.LBE2154:
	.loc 1 1569 0
	ldr	x2, [x1,64]
.LBB2157:
.LBB2156:
	.loc 7 105 0
	ubfx	x0, x0, 1, 1
.LBE2156:
.LBE2157:
	.loc 1 1569 0
	ldr	x21, [x2,280]
.LVL426:
	.loc 1 1571 0
	ldr	x20, [x2,13016]
.LVL427:
	.loc 1 1572 0
	cbz	w0, .L310
	.loc 1 1574 0
	ldr	w0, [x1,84]
	mov	x19, x1
.LVL428:
	cmp	w0, 1
	bne	.L311
.LVL429:
	ldr	x0, [x1,88]
.LBB2158:
.LBB2159:
	.loc 1 697 0
	tbz	x0, 3, .L312
.LVL430:
	.loc 1 698 0
	tbnz	x0, 11, .L332
.LBB2160:
.LBB2161:
	.loc 8 114 0
	add	x2, x20, 12
#APP
// 114 "/mnt/disk/jenkins/ci/workspace/chipset_GLK_patch/opensource/component_code/vendor/huawei/extra/build/build_script/kirin_kernel_release/kernel/arch/arm64/include/asm/atomic_ll_sc.h" 1
	// atomic_sub
	prfm	pstl1strm, [x2]
1:	ldxr	w0, [x2]
	sub	w0, w0, 1
	stxr	w1, w0, [x2]
	cbnz	w1, 1b
// 0 "" 2
.LVL431:
#NO_APP
.L314:
.LBE2161:
.LBE2160:
	.loc 1 712 0
	bl	ktime_get
.LVL432:
	str	x0, [x20,352]
.L311:
.LBE2159:
.LBE2158:
	.loc 1 1580 0
	ldr	x2, [x21,8]
	cbz	x2, .L315
	.loc 1 1581 0
	mov	x0, x19
	mov	w1, 0
	blr	x2
.LVL433:
	.loc 1 1583 0
	cmp	w0, 2
	beq	.L315
	cmp	w0, 3
	beq	.L316
	cmp	w0, 1
	beq	.L333
	.loc 1 1597 0
	mov	w0, 0
.LVL434:
.L310:
	.loc 1 1608 0
	ldp	x19, x20, [sp,16]
	.cfi_remember_state
	.cfi_restore 20
	.cfi_restore 19
.LVL435:
	ldr	x21, [sp,32]
	.cfi_restore 21
.LVL436:
	ldp	x29, x30, [sp], 48
	.cfi_restore 30
	.cfi_restore 29
	.cfi_def_cfa 31, 0
	ret
.LVL437:
.L315:
	.cfi_restore_state
.LBB2168:
.LBB2169:
	.loc 1 683 0
	ldr	w0, [x19,84]
.LVL438:
	cmp	w0, 1
	bne	.L318
	.loc 1 685 0
	ldr	x0, [x19,88]
	tbz	x0, 3, .L319
	.loc 1 686 0
	tbnz	x0, 11, .L334
.LBB2170:
.LBB2171:
	.loc 8 113 0
	add	x2, x20, 12
#APP
// 113 "/mnt/disk/jenkins/ci/workspace/chipset_GLK_patch/opensource/component_code/vendor/huawei/extra/build/build_script/kirin_kernel_release/kernel/arch/arm64/include/asm/atomic_ll_sc.h" 1
	// atomic_add
	prfm	pstl1strm, [x2]
1:	ldxr	w0, [x2]
	add	w0, w0, 1
	stxr	w1, w0, [x2]
	cbnz	w1, 1b
// 0 "" 2
.LVL439:
#NO_APP
.L318:
.LBE2171:
.LBE2170:
.LBE2169:
.LBE2168:
	.loc 1 1592 0
	mov	x0, x19
.LVL440:
	bl	blk_add_timer
.LVL441:
.LBB2177:
.LBB2178:
	.file 16 "/mnt/disk/jenkins/ci/workspace/chipset_GLK_patch/opensource/component_code/vendor/huawei/extra/build/build_script/kirin_kernel_release/kernel/block/blk.h"
	.loc 16 128 0
	add	x1, x19, 96
	mov	w0, 0
	bl	clear_bit
.LVL442:
.LBE2178:
.LBE2177:
	.loc 1 1608 0
	ldr	x21, [sp,32]
	.cfi_remember_state
	.cfi_restore 21
.LVL443:
	.loc 1 1594 0
	mov	w0, 0
	.loc 1 1608 0
	ldp	x19, x20, [sp,16]
	.cfi_restore 19
	.cfi_restore 20
.LVL444:
	ldp	x29, x30, [sp], 48
	.cfi_restore 29
	.cfi_restore 30
	.cfi_def_cfa 31, 0
	ret
.LVL445:
.L333:
	.cfi_restore_state
	.loc 1 1586 0
	mov	x0, x19
.LVL446:
	bl	blk_mq_stat_add
.LVL447:
	.loc 1 1588 0
	ldr	x1, [x19,64]
.LVL448:
	mov	x0, x19
	mov	w2, 0
	bl	ufs_mq_req_complete
.LVL449:
	.loc 1 1608 0
	ldr	x21, [sp,32]
	.cfi_remember_state
	.cfi_restore 21
.LVL450:
	ldp	x19, x20, [sp,16]
	.cfi_restore 19
	.cfi_restore 20
.LVL451:
	ldp	x29, x30, [sp], 48
	.cfi_restore 29
	.cfi_restore 30
	.cfi_def_cfa 31, 0
	ret
.LVL452:
.L312:
	.cfi_restore_state
.LBB2179:
.LBB2166:
.LBB2162:
.LBB2163:
	.loc 8 114 0
	add	x2, x20, 16
#APP
// 114 "/mnt/disk/jenkins/ci/workspace/chipset_GLK_patch/opensource/component_code/vendor/huawei/extra/build/build_script/kirin_kernel_release/kernel/arch/arm64/include/asm/atomic_ll_sc.h" 1
	// atomic_sub
	prfm	pstl1strm, [x2]
1:	ldxr	w0, [x2]
	sub	w0, w0, 1
	stxr	w1, w0, [x2]
	cbnz	w1, 1b
// 0 "" 2
.LVL453:
#NO_APP
.LBE2163:
.LBE2162:
	.loc 1 720 0
	bl	ktime_get
.LVL454:
	str	x0, [x20,360]
	b	.L311
.LVL455:
.L316:
.LBE2166:
.LBE2179:
.LBB2180:
.LBB2181:
	.loc 1 1467 0
	mov	x0, x19
.LVL456:
	bl	blk_mq_requeue_request
.LVL457:
	.loc 1 1468 0
	ldr	x0, [x19,64]
	bl	blk_mq_kick_requeue_list
.LVL458:
.LBE2181:
.LBE2180:
	.loc 1 1608 0
	ldr	x21, [sp,32]
	.cfi_remember_state
	.cfi_restore 21
.LVL459:
	.loc 1 1601 0
	mov	w0, 0
	.loc 1 1608 0
	ldp	x19, x20, [sp,16]
	.cfi_restore 19
	.cfi_restore 20
.LVL460:
	ldp	x29, x30, [sp], 48
	.cfi_restore 29
	.cfi_restore 30
	.cfi_def_cfa 31, 0
	ret
.LVL461:
.L332:
	.cfi_restore_state
.LBB2182:
.LBB2167:
.LBB2164:
.LBB2165:
	.loc 8 114 0
	add	x2, x20, 8
#APP
// 114 "/mnt/disk/jenkins/ci/workspace/chipset_GLK_patch/opensource/component_code/vendor/huawei/extra/build/build_script/kirin_kernel_release/kernel/arch/arm64/include/asm/atomic_ll_sc.h" 1
	// atomic_sub
	prfm	pstl1strm, [x2]
1:	ldxr	w0, [x2]
	sub	w0, w0, 1
	stxr	w1, w0, [x2]
	cbnz	w1, 1b
// 0 "" 2
.LVL462:
#NO_APP
	b	.L314
.LVL463:
.L319:
.LBE2165:
.LBE2164:
.LBE2167:
.LBE2182:
.LBB2183:
.LBB2176:
.LBB2172:
.LBB2173:
	.loc 8 113 0
	add	x2, x20, 16
#APP
// 113 "/mnt/disk/jenkins/ci/workspace/chipset_GLK_patch/opensource/component_code/vendor/huawei/extra/build/build_script/kirin_kernel_release/kernel/arch/arm64/include/asm/atomic_ll_sc.h" 1
	// atomic_add
	prfm	pstl1strm, [x2]
1:	ldxr	w0, [x2]
	add	w0, w0, 1
	stxr	w1, w0, [x2]
	cbnz	w1, 1b
// 0 "" 2
.LVL464:
#NO_APP
	b	.L318
.LVL465:
.L334:
.LBE2173:
.LBE2172:
.LBB2174:
.LBB2175:
	add	x2, x20, 8
#APP
// 113 "/mnt/disk/jenkins/ci/workspace/chipset_GLK_patch/opensource/component_code/vendor/huawei/extra/build/build_script/kirin_kernel_release/kernel/arch/arm64/include/asm/atomic_ll_sc.h" 1
	// atomic_add
	prfm	pstl1strm, [x2]
1:	ldxr	w0, [x2]
	add	w0, w0, 1
	stxr	w1, w0, [x2]
	cbnz	w1, 1b
// 0 "" 2
.LVL466:
#NO_APP
	b	.L318
.LBE2175:
.LBE2174:
.LBE2176:
.LBE2183:
	.cfi_endproc
.LFE3212:
	.size	ufs_mq_req_timeout_handler, .-ufs_mq_req_timeout_handler
	.align	2
	.type	ufs_mq_iosched_deinit, %function
ufs_mq_iosched_deinit:
.LFB3224:
	.loc 1 1808 0
	.cfi_startproc
.LVL467:
	stp	x29, x30, [sp, -48]!
	.cfi_def_cfa_offset 48
	.cfi_offset 29, -48
	.cfi_offset 30, -40
	add	x29, sp, 0
	.cfi_def_cfa_register 29
	stp	x19, x20, [sp,16]
	str	x21, [sp,32]
	.cfi_offset 19, -32
	.cfi_offset 20, -24
	.cfi_offset 21, -16
	.loc 1 1809 0
	ldr	x20, [x0,13016]
.LVL468:
	.loc 1 1811 0
	cbz	x20, .L337
.LBB2184:
.LBB2185:
	.loc 9 302 0
	adrp	x21, .LANCHOR2
	mov	x19, x0
	add	x21, x21, :lo12:.LANCHOR2
	mov	x0, x21
.LVL469:
	bl	_raw_spin_lock
.LVL470:
.LBE2185:
.LBE2184:
.LBB2186:
.LBB2187:
.LBB2188:
	.loc 3 119 0
	ldr	x3, [x20,432]
.LBE2188:
.LBE2187:
.LBE2186:
	.loc 1 1815 0
	add	x1, x20, 432
.LBB2203:
.LBB2196:
.LBB2194:
	.loc 3 119 0
	ldr	x2, [x20,440]
.LBE2194:
.LBE2196:
.LBE2203:
.LBB2204:
.LBB2205:
	.loc 9 347 0
	mov	x0, x21
.LBE2205:
.LBE2204:
.LBB2207:
.LBB2197:
.LBB2195:
.LBB2189:
.LBB2190:
	.loc 3 104 0
	str	x2, [x3,8]
.LBB2191:
.LBB2192:
.LBB2193:
	.loc 2 276 0
	str	x3, [x2]
.LBE2193:
.LBE2192:
.LBE2191:
.LBE2190:
.LBE2189:
.LBE2195:
.LBE2197:
.LBB2198:
.LBB2199:
.LBB2200:
.LBB2201:
.LBB2202:
	str	x1, [x20,432]
.LBE2202:
.LBE2201:
.LBE2200:
	.loc 3 28 0
	str	x1, [x1,8]
.LBE2199:
.LBE2198:
.LBE2207:
.LBB2208:
.LBB2206:
	.loc 9 347 0
	bl	_raw_spin_unlock
.LVL471:
.LBE2206:
.LBE2208:
	.loc 1 1818 0
	ldr	x0, [x19,13016]
	bl	kfree
.LVL472:
	.loc 1 1819 0
	str	xzr, [x19,13016]
	.loc 1 1821 0
	mov	w0, 0
	.loc 1 1822 0
	ldp	x19, x20, [sp,16]
	.cfi_remember_state
	.cfi_restore 20
	.cfi_restore 19
.LVL473:
	ldr	x21, [sp,32]
	.cfi_restore 21
	ldp	x29, x30, [sp], 48
	.cfi_restore 30
	.cfi_restore 29
	.cfi_def_cfa 31, 0
	ret
.LVL474:
.L337:
	.cfi_restore_state
	.loc 1 1812 0
	mov	w0, 22
.LVL475:
	.loc 1 1822 0
	ldr	x21, [sp,32]
	.cfi_restore 21
	ldp	x19, x20, [sp,16]
	.cfi_restore 19
	.cfi_restore 20
.LVL476:
	ldp	x29, x30, [sp], 48
	.cfi_restore 29
	.cfi_restore 30
	.cfi_def_cfa 31, 0
	ret
	.cfi_endproc
.LFE3224:
	.size	ufs_mq_iosched_deinit, .-ufs_mq_iosched_deinit
	.align	2
	.type	ufs_mq_sync_burst_check_timer_expire, %function
ufs_mq_sync_burst_check_timer_expire:
.LFB3159:
	.loc 1 593 0
	.cfi_startproc
.LVL477:
	stp	x29, x30, [sp, -32]!
	.cfi_def_cfa_offset 32
	.cfi_offset 29, -32
	.cfi_offset 30, -24
	add	x29, sp, 0
	.cfi_def_cfa_register 29
	str	x19, [sp,16]
	.cfi_offset 19, -16
	.loc 1 593 0
	mov	x19, x0
	.loc 1 596 0
	bl	ktime_get
.LVL478:
	.loc 1 597 0
	ldr	x19, [x19,13016]
.LVL479:
.LBB2273:
.LBB2274:
.LBB2275:
	.loc 2 247 0 discriminator 4
	ldr	w1, [x19,424]
.LBE2275:
.LBE2274:
.LBE2273:
	.loc 1 599 0 discriminator 5
	sub	w1, w1, #1
	cmp	w1, 1
	bhi	.L339
	.loc 1 602 0
	adrp	x2, .LANCHOR2+24
	ldr	x3, [x19,344]
.LVL480:
.LBB2276:
.LBB2277:
.LBB2278:
	.file 17 "/mnt/disk/jenkins/ci/workspace/chipset_GLK_patch/opensource/component_code/vendor/huawei/extra/build/build_script/kirin_kernel_release/kernel/include/linux/ktime.h"
	.loc 17 233 0
	mov	w1, 16960
	movk	w1, 0xf, lsl 16
.LBE2278:
.LBE2277:
.LBE2276:
	.loc 1 602 0
	ldr	w2, [x2,#:lo12:.LANCHOR2+24]
.LBB2284:
.LBB2280:
.LBB2279:
	.loc 17 233 0
	smaddl	x1, w2, w1, x3
.LVL481:
.LBE2279:
.LBE2280:
.LBB2281:
.LBB2282:
.LBB2283:
	.loc 17 146 0
	cmp	x0, x1
	bgt	.L341
.L339:
.LBE2283:
.LBE2282:
.LBE2281:
.LBE2284:
.LBB2285:
.LBB2286:
.LBB2287:
	.loc 17 233 0
	ldr	x1, [x19,336]
	add	x1, x1, 9998336
	add	x1, x1, 1664
.LBE2287:
.LBE2286:
.LBB2288:
.LBB2289:
.LBB2290:
	.loc 17 144 0
	cmp	x0, x1
	bge	.L360
.LBE2290:
.LBE2289:
.LBE2288:
.LBE2285:
.LBB2291:
.LBB2292:
.LBB2293:
.LBB2294:
.LBB2295:
	.loc 2 247 0 discriminator 4
	ldr	w0, [x19,424]
.LVL482:
.LBE2295:
.LBE2294:
.LBE2293:
	.loc 1 556 0 discriminator 5
	cmp	w0, 1
	beq	.L344
	cmp	w0, 3
	bne	.L345
.LBB2296:
	.loc 1 561 0 discriminator 1
	ldr	x0, [x19]
.LBB2297:
.LBB2298:
	.loc 2 247 0 discriminator 4
	ldr	w0, [x0,1168]
.LBE2298:
.LBE2297:
.LBE2296:
	.loc 1 561 0 discriminator 5
	cbnz	w0, .L345
.L358:
.LBB2299:
.LBB2300:
.LBB2301:
	.loc 2 275 0
	mov	w0, 1
	str	w0, [x19,424]
.L345:
.LBE2301:
.LBE2300:
.LBE2299:
.LBE2292:
.LBE2291:
	.loc 1 613 0
	adrp	x1, jiffies
	.loc 1 613 0 is_stmt 0 discriminator 1
	add	x0, x19, 376
	.loc 1 613 0
	ldr	x1, [x1,#:lo12:jiffies]
	.loc 1 613 0 discriminator 1
	add	x1, x1, 3
	bl	mod_timer
.LVL483:
.L338:
	.loc 1 614 0 is_stmt 1
	ldr	x19, [sp,16]
	.cfi_remember_state
	.cfi_restore 19
.LVL484:
	ldp	x29, x30, [sp], 32
	.cfi_restore 30
	.cfi_restore 29
	.cfi_def_cfa 31, 0
	ret
.LVL485:
.L360:
	.cfi_restore_state
.LBB2306:
.LBB2307:
.LBB2308:
.LBB2309:
.LBB2310:
	.loc 2 247 0 discriminator 4
	ldr	w0, [x19,424]
.LVL486:
.LBE2310:
.LBE2309:
.LBE2308:
	.loc 1 571 0 discriminator 5
	cmp	w0, 2
	beq	.L348
	cmp	w0, 3
	beq	.L349
	cmp	w0, 1
	bne	.L345
	.loc 1 573 0
	bl	ktime_get
.LVL487:
.LBB2311:
.LBB2312:
.LBB2313:
	.loc 17 233 0
	ldr	x2, [x19,352]
	mov	x1, 50048
	movk	x1, 0x1c9, lsl 16
	add	x1, x2, x1
.LBE2313:
.LBE2312:
.LBB2314:
.LBB2315:
.LBB2316:
	.loc 17 146 0
	cmp	x0, x1
	ble	.L345
.LBE2316:
.LBE2315:
.LBE2314:
.LBE2311:
.LBB2317:
.LBB2318:
.LBB2319:
	.loc 2 275 0
	str	wzr, [x19,424]
	b	.L338
.LVL488:
.L341:
.LBE2319:
.LBE2318:
.LBE2317:
.LBE2307:
.LBE2306:
.LBB2336:
.LBB2337:
.LBB2338:
	mov	w1, 3
	str	w1, [x19,424]
	b	.L339
.LVL489:
.L344:
.LBE2338:
.LBE2337:
.LBE2336:
.LBB2339:
.LBB2305:
.LBB2302:
.LBB2303:
.LBB2304:
	mov	w0, 2
	str	w0, [x19,424]
	b	.L345
.L348:
.LBE2304:
.LBE2303:
.LBE2302:
.LBE2305:
.LBE2339:
.LBB2340:
.LBB2335:
	.loc 1 579 0
	bl	ktime_get
.LVL490:
.LBB2322:
.LBB2323:
.LBB2324:
	.loc 17 233 0
	ldr	x1, [x19,336]
	add	x1, x1, 9998336
	add	x1, x1, 1664
.LBE2324:
.LBE2323:
.LBB2325:
.LBB2326:
.LBB2327:
	.loc 17 146 0
	cmp	x0, x1
	bgt	.L358
	b	.L345
.LVL491:
.L349:
.LBE2327:
.LBE2326:
.LBE2325:
.LBE2322:
	.loc 1 583 0
	bl	ktime_get
.LVL492:
.LBB2328:
.LBB2329:
.LBB2330:
	.loc 17 233 0
	ldr	x2, [x19,352]
	mov	x1, 11520
	movk	x1, 0x131, lsl 16
	add	x1, x2, x1
.LBE2330:
.LBE2329:
.LBB2331:
.LBB2332:
.LBB2333:
	.loc 17 146 0
	cmp	x0, x1
	ble	.L345
.LBE2333:
.LBE2332:
.LBE2331:
.LBE2328:
.LBB2334:
.LBB2321:
.LBB2320:
	.loc 2 275 0
	str	wzr, [x19,424]
	b	.L338
.LBE2320:
.LBE2321:
.LBE2334:
.LBE2335:
.LBE2340:
	.cfi_endproc
.LFE3159:
	.size	ufs_mq_sync_burst_check_timer_expire, .-ufs_mq_sync_burst_check_timer_expire
	.align	2
	.type	ufs_mq_iosched_init, %function
ufs_mq_iosched_init:
.LFB3223:
	.loc 1 1722 0
	.cfi_startproc
.LVL493:
	stp	x29, x30, [sp, -64]!
	.cfi_def_cfa_offset 64
	.cfi_offset 29, -64
	.cfi_offset 30, -56
.LBB2341:
.LBB2342:
	.file 18 "/mnt/disk/jenkins/ci/workspace/chipset_GLK_patch/opensource/component_code/vendor/huawei/extra/build/build_script/kirin_kernel_release/kernel/include/linux/slab.h"
	.loc 18 499 0
	mov	w1, 192
	mov	x2, 448
.LBE2342:
.LBE2341:
	.loc 1 1722 0
	add	x29, sp, 0
	.cfi_def_cfa_register 29
	stp	x21, x22, [sp,32]
	.cfi_offset 21, -32
	.cfi_offset 22, -24
	mov	x21, x0
.LBB2346:
.LBB2343:
	.loc 18 499 0
	adrp	x0, kmalloc_caches+72
.LVL494:
	movk	w1, 0x240, lsl 16
.LBE2343:
.LBE2346:
	.loc 1 1722 0
	stp	x19, x20, [sp,16]
.LBB2347:
.LBB2344:
	.loc 18 499 0
	ldr	x0, [x0,#:lo12:kmalloc_caches+72]
.LBE2344:
.LBE2347:
	.loc 1 1722 0
	stp	x23, x24, [sp,48]
	.cfi_offset 19, -48
	.cfi_offset 20, -40
	.cfi_offset 23, -16
	.cfi_offset 24, -8
.LBB2348:
.LBB2345:
	.loc 18 499 0
	bl	kmem_cache_alloc_trace
.LVL495:
	mov	x19, x0
.LBE2345:
.LBE2348:
	.loc 1 1726 0
	cbz	x0, .L371
	.loc 1 1733 0
	add	x4, x19, 32
.LBB2349:
.LBB2350:
.LBB2351:
.LBB2352:
.LBB2353:
	.loc 2 276 0
	str	x4, [x19,32]
.LBE2353:
.LBE2352:
.LBE2351:
	.loc 3 28 0
	str	x4, [x19,40]
.LBE2350:
.LBE2349:
	.loc 1 1733 0
	adrp	x4, ufs_mq_sync_io_dispatch_work_fn
	add	x4, x4, :lo12:ufs_mq_sync_io_dispatch_work_fn
	.loc 1 1733 0 is_stmt 0 discriminator 2
	add	x0, x0, 56
	mov	w1, 2097152
	mov	x2, 0
	mov	x3, 0
	.loc 1 1733 0
	mov	x23, 68719476704
	str	x4, [x19,48]
	adrp	x22, delayed_work_timer_fn
	str	x23, [x19,24]
	add	x24, x22, :lo12:delayed_work_timer_fn
	.loc 1 1731 0 is_stmt 1
	str	x21, [x19]
	.loc 1 1733 0 discriminator 2
	bl	init_timer_key
.LVL496:
	.loc 1 1735 0
	add	x4, x19, 136
	.loc 1 1733 0
	add	x5, x19, 24
	.loc 1 1735 0
	str	x23, [x19,128]
	.loc 1 1735 0 is_stmt 0 discriminator 2
	mov	x3, 0
	.loc 1 1733 0 is_stmt 1
	str	x5, [x19,88]
	.loc 1 1735 0 discriminator 2
	add	x0, x19, 160
.LBB2354:
.LBB2355:
.LBB2356:
.LBB2357:
.LBB2358:
	.loc 2 276 0
	str	x4, [x19,136]
.LBE2358:
.LBE2357:
.LBE2356:
.LBE2355:
.LBE2354:
	.loc 1 1735 0 discriminator 2
	mov	w1, 2097152
	.loc 1 1733 0
	str	x24, [x19,80]
	.loc 1 1735 0 discriminator 2
	mov	x2, 0
	.loc 1 1734 0
	str	x21, [x19,120]
.LBB2360:
	.loc 1 1741 0 discriminator 1
	adrp	x20, .LANCHOR0
.LBE2360:
.LBB2361:
.LBB2359:
	.loc 3 28 0
	str	x4, [x4,8]
.LBE2359:
.LBE2361:
	.loc 1 1735 0
	adrp	x4, ufs_mq_async_io_dispatch_work_fn
	add	x4, x4, :lo12:ufs_mq_async_io_dispatch_work_fn
	str	x4, [x19,152]
.LBB2362:
	.loc 1 1741 0 discriminator 1
	add	x23, x20, :lo12:.LANCHOR0
.LBE2362:
	.loc 1 1735 0 discriminator 2
	bl	init_timer_key
.LVL497:
	.loc 1 1735 0 is_stmt 0
	str	x24, [x19,184]
	.loc 1 1738 0 is_stmt 1
	add	x0, x19, 232
	.loc 1 1739 0
	add	x3, x19, 248
.LBB2363:
.LBB2364:
.LBB2365:
.LBB2366:
.LBB2367:
	.loc 2 276 0
	str	x0, [x19,232]
.LBE2367:
.LBE2366:
.LBE2365:
.LBE2364:
.LBE2363:
	.loc 1 1735 0
	add	x1, x19, 128
	.loc 1 1736 0
	str	x21, [x19,224]
.LBB2369:
	.loc 1 1741 0 discriminator 1
	add	x23, x23, 16
.LBE2369:
	.loc 1 1735 0
	str	x1, [x19,192]
.LBB2370:
	.loc 1 1741 0 discriminator 1
	adrp	x1, .LC9
.LBE2370:
.LBB2371:
.LBB2368:
	.loc 3 28 0
	str	x0, [x0,8]
.LBE2368:
.LBE2371:
.LBB2372:
	.loc 1 1741 0 discriminator 1
	add	x1, x1, :lo12:.LC9
.LBE2372:
.LBB2373:
.LBB2374:
.LBB2375:
.LBB2376:
.LBB2377:
	.loc 2 276 0
	str	x3, [x19,248]
.LBE2377:
.LBE2376:
.LBE2375:
.LBE2374:
.LBE2373:
.LBB2379:
	.loc 1 1741 0 discriminator 1
	add	x0, x19, 280
.LBE2379:
.LBB2380:
.LBB2378:
	.loc 3 28 0
	str	x3, [x3,8]
.LBE2378:
.LBE2380:
.LBB2381:
	.loc 1 1741 0 discriminator 1
	mov	x2, x23
	bl	__raw_spin_lock_init
.LVL498:
.LBE2381:
.LBB2382:
	.loc 1 1742 0 discriminator 1
	adrp	x1, .LC10
	mov	x2, x23
	add	x1, x1, :lo12:.LC10
	add	x0, x19, 304
	bl	__raw_spin_lock_init
.LVL499:
.LBE2382:
.LBB2383:
.LBB2384:
.LBB2385:
	.loc 2 275 0
	str	wzr, [x19,16]
.LBE2385:
.LBE2384:
.LBE2383:
	.loc 1 1748 0
	mov	w0, 28
	str	w0, [x19,328]
	.loc 1 1749 0
	mov	w0, 12
.LBB2386:
.LBB2387:
.LBB2388:
	.loc 2 275 0
	str	wzr, [x19,8]
.LBE2388:
.LBE2387:
.LBE2386:
.LBB2389:
.LBB2390:
.LBB2391:
	str	wzr, [x19,12]
.LBE2391:
.LBE2390:
.LBE2389:
	.loc 1 1749 0
	str	w0, [x19,332]
	.loc 1 1751 0
	bl	ktime_get
.LVL500:
	str	x0, [x19,336]
	.loc 1 1752 0
	bl	ktime_get
.LVL501:
	str	x0, [x19,344]
	.loc 1 1753 0
	bl	ktime_get
.LVL502:
	str	x0, [x19,352]
	.loc 1 1754 0
	bl	ktime_get
.LVL503:
	str	x0, [x19,360]
	.loc 1 1755 0
	bl	ktime_get
.LVL504:
	.loc 1 1757 0
	mov	w1, 0
	.loc 1 1755 0
	str	x0, [x19,368]
	.loc 1 1757 0
	mov	x2, 0
	add	x0, x19, 376
	mov	x3, 0
	bl	init_timer_key
.LVL505:
	.loc 1 1758 0
	str	x21, [x19,408]
	.loc 1 1759 0
	adrp	x0, ufs_mq_sync_burst_check_timer_expire
	.loc 1 1767 0
	ldr	x1, [x21,13024]
	.loc 1 1759 0
	add	x0, x0, :lo12:ufs_mq_sync_burst_check_timer_expire
.LBB2392:
.LBB2393:
.LBB2394:
	.loc 2 275 0
	str	wzr, [x19,424]
.LBE2394:
.LBE2393:
.LBE2392:
	.loc 1 1759 0
	str	x0, [x19,400]
	.loc 1 1763 0
	str	wzr, [x19,428]
	.loc 1 1765 0
	str	x19, [x21,13016]
	.loc 1 1767 0
	cbz	x1, .L363
	.loc 1 1767 0 is_stmt 0 discriminator 1
	ldr	x0, [x1,208]
	cbz	x0, .L363
.LBB2395:
	.loc 1 1769 0 is_stmt 1
	ldr	x0, [x0]
	ldr	x1, [x0,8]
	cbz	x1, .L363
	.loc 1 1770 0
	mov	x0, x21
	blr	x1
.LVL506:
.L363:
.LBE2395:
	.loc 1 1773 0
	ldr	x0, [x20,#:lo12:.LANCHOR0]
	cbz	x0, .L364
.L367:
	.loc 1 1780 0
	add	x23, x20, :lo12:.LANCHOR0
	ldr	x0, [x23,8]
	cbz	x0, .L389
.L366:
	.loc 1 1787 0
	add	x23, x20, :lo12:.LANCHOR0
	ldr	x0, [x23,16]
	cbz	x0, .L390
.L369:
.LBB2396:
.LBB2397:
	.loc 9 302 0
	adrp	x22, .LANCHOR2
.LBE2397:
.LBE2396:
	.loc 1 1799 0
	add	x20, x20, :lo12:.LANCHOR0
.LBB2399:
.LBB2398:
	.loc 9 302 0
	add	x22, x22, :lo12:.LANCHOR2
	mov	x0, x22
	bl	_raw_spin_lock
.LVL507:
.LBE2398:
.LBE2399:
.LBB2400:
.LBB2401:
	.loc 3 92 0
	ldr	x2, [x22,40]
.LBE2401:
.LBE2400:
	.loc 1 1797 0
	add	x1, x19, 432
.LBB2411:
.LBB2409:
.LBB2402:
.LBB2403:
	.loc 3 64 0
	str	x2, [x19,440]
	.loc 3 63 0
	add	x0, x22, 32
	.loc 3 62 0
	str	x1, [x22,40]
	.loc 3 63 0
	str	x0, [x19,432]
.LBE2403:
.LBE2402:
.LBE2409:
.LBE2411:
.LBB2412:
.LBB2413:
	.loc 9 347 0
	mov	x0, x22
.LBE2413:
.LBE2412:
.LBB2415:
.LBB2410:
.LBB2408:
.LBB2407:
.LBB2404:
.LBB2405:
.LBB2406:
	.loc 2 276 0
	str	x1, [x2]
.LBE2406:
.LBE2405:
.LBE2404:
.LBE2407:
.LBE2408:
.LBE2410:
.LBE2415:
.LBB2416:
.LBB2414:
	.loc 9 347 0
	bl	_raw_spin_unlock
.LVL508:
.LBE2414:
.LBE2416:
.LBB2417:
.LBB2418:
	.loc 10 492 0
	ldr	x1, [x20,16]
	add	x2, x20, 24
	mov	x3, 500
	mov	w0, 8
	bl	queue_delayed_work_on
.LVL509:
.LBE2418:
.LBE2417:
	.loc 1 1801 0
	adrp	x1, ufs_mq_make_request
	mov	x0, x21
	add	x1, x1, :lo12:ufs_mq_make_request
	bl	blk_queue_make_request
.LVL510:
	.loc 1 1723 0
	mov	w0, 0
.LVL511:
.L362:
	.loc 1 1805 0
	ldp	x19, x20, [sp,16]
	.cfi_remember_state
	.cfi_restore 20
	.cfi_restore 19
.LVL512:
	ldp	x21, x22, [sp,32]
	.cfi_restore 22
	.cfi_restore 21
.LVL513:
	ldp	x23, x24, [sp,48]
	.cfi_restore 24
	.cfi_restore 23
	ldp	x29, x30, [sp], 64
	.cfi_restore 30
	.cfi_restore 29
	.cfi_def_cfa 31, 0
	ret
.LVL514:
.L390:
	.cfi_restore_state
	.loc 1 1788 0
	adrp	x0, .LC13
	mov	w1, 6
	add	x0, x0, :lo12:.LC13
	mov	w2, 0
	mov	x3, 0
	mov	x4, 0
	bl	__alloc_workqueue_key
.LVL515:
	str	x0, [x23,16]
	.loc 1 1789 0
	cbz	x0, .L370
.LBB2419:
.LBB2420:
.LBB2421:
	.loc 3 27 0
	add	x4, x23, 32
.LBE2421:
.LBE2420:
.LBE2419:
	.loc 1 1793 0
	add	x24, x23, 24
.LBB2427:
.LBB2425:
.LBB2424:
.LBB2422:
.LBB2423:
	.loc 2 276 0
	str	x4, [x23,32]
.LBE2423:
.LBE2422:
.LBE2424:
.LBE2425:
.LBE2427:
	.loc 1 1793 0
	mov	x5, 68719476704
.LBB2428:
.LBB2426:
	.loc 3 28 0
	str	x4, [x23,40]
.LBE2426:
.LBE2428:
	.loc 1 1793 0
	adrp	x4, ufs_mq_io_guard_work_fn
	add	x4, x4, :lo12:ufs_mq_io_guard_work_fn
	.loc 1 1793 0 is_stmt 0 discriminator 2
	add	x0, x23, 56
	mov	w1, 2097152
	mov	x2, 0
	mov	x3, 0
	.loc 1 1793 0
	str	x5, [x23,24]
	str	x4, [x23,48]
	add	x22, x22, :lo12:delayed_work_timer_fn
	.loc 1 1793 0 discriminator 2
	bl	init_timer_key
.LVL516:
	.loc 1 1793 0
	str	x24, [x24,64]
	str	x22, [x24,56]
	b	.L369
.L371:
	.loc 1 1727 0 is_stmt 1
	mov	w0, -22
.LVL517:
.LVL518:
	.loc 1 1805 0
	ldp	x19, x20, [sp,16]
	.cfi_remember_state
	.cfi_restore 19
	.cfi_restore 20
	ldp	x21, x22, [sp,32]
	.cfi_restore 21
	.cfi_restore 22
.LVL519:
	ldp	x23, x24, [sp,48]
	.cfi_restore 23
	.cfi_restore 24
	ldp	x29, x30, [sp], 64
	.cfi_restore 29
	.cfi_restore 30
	.cfi_def_cfa 31, 0
	ret
.LVL520:
.L364:
	.cfi_restore_state
	.loc 1 1774 0
	adrp	x0, .LC11
	mov	w1, 16
	add	x0, x0, :lo12:.LC11
	mov	w2, 0
	mov	x3, 0
	mov	x4, 0
	bl	__alloc_workqueue_key
.LVL521:
	adrp	x1, .LANCHOR0
	str	x0, [x1,#:lo12:.LANCHOR0]
	.loc 1 1775 0
	cbnz	x0, .L367
.L370:
	.loc 1 1776 0
	mov	w0, -12
.LVL522:
	b	.L362
.LVL523:
.L389:
	.loc 1 1781 0
	adrp	x0, .LC12
	mov	w1, 2
	add	x0, x0, :lo12:.LC12
	mov	w2, 0
	mov	x3, 0
	mov	x4, 0
	bl	__alloc_workqueue_key
.LVL524:
	str	x0, [x23,8]
	.loc 1 1782 0
	cbnz	x0, .L366
	.loc 1 1776 0
	mov	w0, -12
.LVL525:
	b	.L362
	.cfi_endproc
.LFE3223:
	.size	ufs_mq_iosched_init, .-ufs_mq_iosched_init
	.align	2
	.type	ufs_tagset_free_tags, %function
ufs_tagset_free_tags:
.LFB3147:
	.loc 1 440 0
	.cfi_startproc
.LVL526:
	stp	x29, x30, [sp, -48]!
	.cfi_def_cfa_offset 48
	.cfi_offset 29, -48
	.cfi_offset 30, -40
	add	x29, sp, 0
	.cfi_def_cfa_register 29
	stp	x19, x20, [sp,16]
	stp	x21, x22, [sp,32]
	.cfi_offset 19, -32
	.cfi_offset 20, -24
	.cfi_offset 21, -16
	.cfi_offset 22, -8
	.loc 1 440 0
	mov	x19, x0
.LBB2429:
.LBB2430:
	.loc 12 283 0
	ldr	x0, [x0,96]
.LVL527:
	bl	kfree
.LVL528:
	.loc 12 284 0
	ldr	x0, [x19,80]
	bl	free_percpu
.LVL529:
.LBB2431:
.LBB2432:
	.loc 12 152 0
	ldr	x0, [x19,72]
	bl	kfree
.LVL530:
	.loc 12 153 0
	str	xzr, [x19,72]
.LBE2432:
.LBE2431:
.LBE2430:
.LBE2429:
.LBB2433:
.LBB2434:
	.loc 12 283 0
	ldr	x0, [x19,152]
	bl	kfree
.LVL531:
	.loc 12 284 0
	ldr	x0, [x19,136]
	bl	free_percpu
.LVL532:
.LBB2435:
.LBB2436:
	.loc 12 152 0
	ldr	x0, [x19,128]
	bl	kfree
.LVL533:
	.loc 12 153 0
	str	xzr, [x19,128]
.LBE2436:
.LBE2435:
.LBE2434:
.LBE2433:
.LBB2437:
.LBB2438:
	.loc 12 283 0
	ldr	x0, [x19,208]
	bl	kfree
.LVL534:
	.loc 12 284 0
	ldr	x0, [x19,192]
	bl	free_percpu
.LVL535:
.LBB2439:
.LBB2440:
	.loc 12 152 0
	ldr	x0, [x19,184]
	bl	kfree
.LVL536:
	.loc 12 153 0
	str	xzr, [x19,184]
.LBE2440:
.LBE2439:
.LBE2438:
.LBE2437:
	.loc 1 444 0
	mov	x0, x19
	bl	kfree
.LVL537:
	.loc 1 446 0
	mov	w0, 0
	ldp	x19, x20, [sp,16]
	.cfi_restore 20
	.cfi_restore 19
.LVL538:
	ldp	x21, x22, [sp,32]
	.cfi_restore 22
	.cfi_restore 21
	ldp	x29, x30, [sp], 48
	.cfi_restore 30
	.cfi_restore 29
	.cfi_def_cfa 31, 0
	ret
	.cfi_endproc
.LFE3147:
	.size	ufs_tagset_free_tags, .-ufs_tagset_free_tags
	.align	2
	.type	ufs_tagset_init_tags, %function
ufs_tagset_init_tags:
.LFB3146:
	.loc 1 423 0
	.cfi_startproc
.LVL539:
	stp	x29, x30, [sp, -96]!
	.cfi_def_cfa_offset 96
	.cfi_offset 29, -96
	.cfi_offset 30, -88
.LBB2465:
.LBB2466:
.LBB2467:
.LBB2468:
.LBB2469:
	.loc 18 390 0
	mov	w0, 32960
.LVL540:
.LBE2469:
.LBE2468:
.LBE2467:
.LBE2466:
.LBE2465:
	.loc 1 423 0
	add	x29, sp, 0
	.cfi_def_cfa_register 29
.LBB2486:
.LBB2482:
.LBB2478:
.LBB2474:
.LBB2470:
	.loc 18 390 0
	movk	w0, 0x240, lsl 16
.LBE2470:
.LBE2474:
.LBE2478:
.LBE2482:
.LBE2486:
	.loc 1 423 0
	stp	x25, x26, [sp,64]
	.cfi_offset 25, -32
	.cfi_offset 26, -24
	mov	w25, w1
.LBB2487:
.LBB2483:
.LBB2479:
.LBB2475:
.LBB2471:
	.loc 18 390 0
	mov	w1, w0
.LVL541:
	adrp	x0, kmalloc_caches+64
.LBE2471:
.LBE2475:
.LBE2479:
.LBE2483:
.LBE2487:
	.loc 1 423 0
	str	x5, [x29,88]
	stp	x21, x22, [sp,32]
	.cfi_offset 21, -64
	.cfi_offset 22, -56
	mov	w22, w2
.LBB2488:
.LBB2484:
.LBB2480:
.LBB2476:
.LBB2472:
	.loc 18 390 0
	mov	x2, 248
.LVL542:
	ldr	x0, [x0,#:lo12:kmalloc_caches+64]
.LBE2472:
.LBE2476:
.LBE2480:
.LBE2484:
.LBE2488:
	.loc 1 423 0
	mov	w21, w3
	stp	x19, x20, [sp,16]
	stp	x23, x24, [sp,48]
	.cfi_offset 19, -80
	.cfi_offset 20, -72
	.cfi_offset 23, -48
	.cfi_offset 24, -40
	.loc 1 423 0
	mov	x26, x6
	mov	w23, w4
.LBB2489:
.LBB2485:
.LBB2481:
.LBB2477:
.LBB2473:
	.loc 18 390 0
	bl	kmem_cache_alloc_trace
.LVL543:
	mov	x19, x0
.LBE2473:
.LBE2477:
.LBE2481:
.LBE2485:
.LBE2489:
	.loc 1 426 0
	ldr	x5, [x29,88]
.LVL544:
	cbz	x0, .L399
.LBB2490:
.LBB2491:
	.loc 1 390 0
	sub	w20, w25, w22
	.loc 1 393 0
	adrp	x0, .LC15
	.loc 1 390 0
	sub	w20, w20, w21
.LVL545:
	.loc 1 391 0
	cmp	w5, 1
	.loc 1 393 0
	mov	w2, w22
	mov	w1, w20
	mov	w3, w21
	add	x0, x0, :lo12:.LC15
	.loc 1 391 0
	cset	w24, eq
.LVL546:
.LBE2491:
.LBE2490:
	.loc 1 431 0
	str	w22, [x19,4]
	.loc 1 430 0
	str	w25, [x19]
.LBB2515:
.LBB2512:
	.loc 1 395 0
	add	x22, x19, 56
.LVL547:
.LBE2512:
.LBE2515:
	.loc 1 432 0
	str	w21, [x19,8]
.LBB2516:
.LBB2513:
	.loc 1 393 0
	bl	printk
.LVL548:
	.loc 1 395 0
	mov	w4, 192
	mov	x0, x22
	movk	w4, 0x240, lsl 16
	mov	w1, w20
	mov	w2, -1
	mov	w3, w24
	mov	w5, w23
	bl	sbitmap_queue_init_node
.LVL549:
	cbnz	w0, .L395
	.loc 1 398 0
	mov	w4, 192
	add	x21, x19, 112
.LVL550:
	ldr	w1, [x19,4]
	movk	w4, 0x240, lsl 16
	mov	x0, x21
	mov	w2, -1
	mov	w3, w24
	mov	w5, w23
	bl	sbitmap_queue_init_node
.LVL551:
	cbnz	w0, .L396
	.loc 1 401 0
	mov	w4, 192
	ldr	w1, [x19,8]
	movk	w4, 0x240, lsl 16
	add	x0, x19, 168
	mov	w2, -1
	mov	w3, w24
	mov	w5, w23
	bl	sbitmap_queue_init_node
.LVL552:
	cbnz	w0, .L397
.LBB2492:
.LBB2493:
.LBB2494:
	.loc 2 275 0
	str	wzr, [x19,24]
.LBE2494:
.LBE2493:
.LBE2492:
.LBB2495:
.LBB2496:
.LBB2497:
	mov	x1, x19
.LBE2497:
.LBE2496:
.LBE2495:
	.loc 1 406 0
	ldr	w0, [x19,4]
.LBB2500:
.LBB2501:
.LBB2502:
	.loc 2 275 0
	str	wzr, [x19,28]
.LBE2502:
.LBE2501:
.LBE2500:
	.loc 1 406 0
	add	w0, w20, w0
	.loc 1 404 0
	str	wzr, [x19,12]
	.loc 1 405 0
	str	w20, [x19,16]
	.loc 1 406 0
	str	w0, [x19,20]
.LBB2503:
.LBB2499:
.LBB2498:
	.loc 2 275 0
	str	wzr, [x19,32]
.LVL553:
.L398:
.LBE2498:
.LBE2499:
.LBE2503:
.LBE2513:
.LBE2516:
	.loc 1 434 0
	str	x1, [x26]
	.loc 1 436 0
	mov	w0, 0
.LVL554:
.L394:
	.loc 1 437 0
	ldp	x19, x20, [sp,16]
	.cfi_remember_state
	.cfi_restore 20
	.cfi_restore 19
.LVL555:
	ldp	x21, x22, [sp,32]
	.cfi_restore 22
	.cfi_restore 21
.LVL556:
	ldp	x23, x24, [sp,48]
	.cfi_restore 24
	.cfi_restore 23
.LVL557:
	ldp	x25, x26, [sp,64]
	.cfi_restore 26
	.cfi_restore 25
.LVL558:
	ldp	x29, x30, [sp], 96
	.cfi_restore 30
	.cfi_restore 29
	.cfi_def_cfa 31, 0
	ret
.LVL559:
.L397:
	.cfi_restore_state
.LBB2517:
.LBB2514:
.LBB2504:
.LBB2505:
	.loc 12 283 0
	ldr	x0, [x21,40]
	bl	kfree
.LVL560:
	.loc 12 284 0
	ldr	x0, [x21,24]
	bl	free_percpu
.LVL561:
.LBB2506:
.LBB2507:
	.loc 12 152 0
	ldr	x0, [x19,128]
	bl	kfree
.LVL562:
	.loc 12 153 0
	str	xzr, [x19,128]
.L396:
.LBE2507:
.LBE2506:
.LBE2505:
.LBE2504:
.LBB2508:
.LBB2509:
	.loc 12 283 0
	ldr	x0, [x22,40]
	bl	kfree
.LVL563:
	.loc 12 284 0
	ldr	x0, [x22,24]
	bl	free_percpu
.LVL564:
.LBB2510:
.LBB2511:
	.loc 12 152 0
	ldr	x0, [x19,72]
	bl	kfree
.LVL565:
	.loc 12 153 0
	str	xzr, [x19,72]
.LVL566:
.L395:
.LBE2511:
.LBE2510:
.LBE2509:
.LBE2508:
	.loc 1 416 0
	adrp	x1, .LANCHOR1
	adrp	x0, .LC16
	add	x1, x1, :lo12:.LANCHOR1
	add	x0, x0, :lo12:.LC16
	add	x1, x1, 16
	bl	printk
.LVL567:
	.loc 1 417 0
	mov	x0, x19
	bl	kfree
.LVL568:
	.loc 1 418 0
	mov	x1, 0
	b	.L398
.LVL569:
.L399:
.LBE2514:
.LBE2517:
	.loc 1 427 0
	adrp	x0, .LC14
	add	x0, x0, :lo12:.LC14
	bl	printk
.LVL570:
	.loc 1 428 0
	mov	w0, -12
	b	.L394
	.cfi_endproc
.LFE3146:
	.size	ufs_tagset_init_tags, .-ufs_tagset_init_tags
	.align	2
	.type	__ufs_mq_complete_request_remote, %function
__ufs_mq_complete_request_remote:
.LFB3202:
	.loc 1 1456 0
	.cfi_startproc
.LVL571:
	stp	x29, x30, [sp, -32]!
	.cfi_def_cfa_offset 32
	.cfi_offset 29, -32
	.cfi_offset 30, -24
	.loc 1 1458 0
	mov	x1, 2056
	.loc 1 1456 0
	add	x29, sp, 0
	.cfi_def_cfa_register 29
	stp	x19, x20, [sp,16]
	.cfi_offset 19, -16
	.cfi_offset 20, -8
	.loc 1 1456 0
	mov	x19, x0
	.loc 1 1458 0
	ldr	x2, [x0,88]
	tst	x2, x1
	beq	.L401
	.loc 1 1459 0
	mov	w1, 8
	bl	hisi_blk_latency_req_check
.LVL572:
	.loc 1 1460 0
	ldr	x1, [x19,64]
	mov	x0, x19
	ldr	x1, [x1,248]
	blr	x1
.LVL573:
	.loc 1 1463 0
	ldp	x19, x20, [sp,16]
	.cfi_remember_state
	.cfi_restore 20
	.cfi_restore 19
.LVL574:
	ldp	x29, x30, [sp], 32
	.cfi_restore 30
	.cfi_restore 29
	.cfi_def_cfa 31, 0
	ret
.LVL575:
.L401:
	.cfi_restore_state
.LBB2541:
.LBB2542:
.LBB2543:
.LBB2544:
.LBB2545:
.LBB2546:
	.loc 15 29 0
#APP
// 29 "/mnt/disk/jenkins/ci/workspace/chipset_GLK_patch/opensource/component_code/vendor/huawei/extra/build/build_script/kirin_kernel_release/kernel/arch/arm64/include/asm/irqflags.h" 1
	mrs	x20, daif		// arch_local_irq_save
msr	daifset, #2
// 0 "" 2
.LVL576:
#NO_APP
.LBE2546:
.LBE2545:
	.loc 1 1449 0
	add	x1, x0, 136
.LBB2547:
	.loc 1 1448 0
	adrp	x0, blk_cpu_done
.LVL577:
.LBB2548:
.LBB2549:
	.loc 14 34 0
#APP
// 34 "/mnt/disk/jenkins/ci/workspace/chipset_GLK_patch/opensource/component_code/vendor/huawei/extra/build/build_script/kirin_kernel_release/kernel/arch/arm64/include/asm/percpu.h" 1
	mrs x3, tpidr_el1
// 0 "" 2
.LVL578:
#NO_APP
.LBE2549:
.LBE2548:
	.loc 1 1448 0
	add	x0, x0, :lo12:blk_cpu_done
.LVL579:
	add	x2, x3, x0
.LBE2547:
.LBB2550:
.LBB2551:
	.loc 3 92 0
	ldr	x4, [x2,8]
.LBB2552:
.LBB2553:
	.loc 3 62 0
	str	x1, [x2,8]
	.loc 3 63 0
	str	x2, [x19,136]
	.loc 3 64 0
	str	x4, [x19,144]
.LBB2554:
.LBB2555:
.LBB2556:
	.loc 2 276 0
	str	x1, [x4]
.LBE2556:
.LBE2555:
.LBE2554:
.LBE2553:
.LBE2552:
.LBE2551:
.LBE2550:
	.loc 1 1450 0
	ldr	x0, [x3,x0]
.LVL580:
	cmp	x1, x0
	bne	.L403
	.loc 1 1451 0
	mov	w0, 4
	bl	raise_softirq_irqoff
.LVL581:
.L403:
.LBB2557:
.LBB2558:
	.loc 15 81 0
#APP
// 81 "/mnt/disk/jenkins/ci/workspace/chipset_GLK_patch/opensource/component_code/vendor/huawei/extra/build/build_script/kirin_kernel_release/kernel/arch/arm64/include/asm/irqflags.h" 1
	msr	daif, x20		// arch_local_irq_restore
// 0 "" 2
#NO_APP
.LBE2558:
.LBE2557:
.LBE2544:
.LBE2543:
.LBE2542:
.LBE2541:
	.loc 1 1463 0
	ldp	x19, x20, [sp,16]
	.cfi_restore 19
	.cfi_restore 20
.LVL582:
	ldp	x29, x30, [sp], 32
	.cfi_restore 29
	.cfi_restore 30
	.cfi_def_cfa 31, 0
	ret
	.cfi_endproc
.LFE3202:
	.size	__ufs_mq_complete_request_remote, .-__ufs_mq_complete_request_remote
	.align	2
	.type	ufs_mq_insert_sync_list.isra.26, %function
ufs_mq_insert_sync_list.isra.26:
.LFB3252:
	.loc 1 772 0
	.cfi_startproc
.LVL583:
	stp	x29, x30, [sp, -48]!
	.cfi_def_cfa_offset 48
	.cfi_offset 29, -48
	.cfi_offset 30, -40
	add	x29, sp, 0
	.cfi_def_cfa_register 29
	stp	x19, x20, [sp,16]
	.cfi_offset 19, -32
	.cfi_offset 20, -24
	mov	x19, x1
	.loc 1 776 0
	mov	w1, 4
	.loc 1 772 0
	mov	x20, x0
	str	x21, [sp,32]
	.cfi_offset 21, -16
	.loc 1 776 0
	bl	hisi_blk_latency_req_check
.LVL584:
.LBB2570:
.LBB2571:
	.loc 9 291 0
	add	x21, x19, 280
.LBE2571:
.LBE2570:
	.loc 1 777 0 discriminator 1
	mov	x0, x21
	bl	_raw_spin_lock_irqsave
.LVL585:
	mov	x1, x0
.LVL586:
	.loc 1 778 0
	ldr	x2, [x20,88]
	.loc 1 778 0 is_stmt 0 discriminator 1
	add	x3, x19, 232
	add	x19, x19, 248
.LBB2572:
.LBB2573:
	.loc 9 362 0 is_stmt 1
	mov	x0, x21
.LBE2573:
.LBE2572:
	.loc 1 778 0
	and	x2, x2, 2048
	.loc 1 778 0 is_stmt 0 discriminator 1
	cmp	x2, xzr
	csel	x19, x19, x3, eq
.LBB2575:
.LBB2576:
	.loc 3 92 0 is_stmt 1
	ldr	x2, [x19,8]
.LBB2577:
.LBB2578:
	.loc 3 62 0
	str	x20, [x19,8]
	.loc 3 64 0
	str	x2, [x20,8]
	.loc 3 63 0
	str	x19, [x20]
.LBB2579:
.LBB2580:
.LBB2581:
	.loc 2 276 0
	str	x20, [x2]
.LBE2581:
.LBE2580:
.LBE2579:
.LBE2578:
.LBE2577:
.LBE2576:
.LBE2575:
.LBB2582:
.LBB2574:
	.loc 9 362 0
	bl	_raw_spin_unlock_irqrestore
.LVL587:
.LBE2574:
.LBE2582:
	.loc 1 780 0
	ldr	x21, [sp,32]
	.cfi_restore 21
	ldp	x19, x20, [sp,16]
	.cfi_restore 20
	.cfi_restore 19
.LVL588:
	ldp	x29, x30, [sp], 48
	.cfi_restore 30
	.cfi_restore 29
	.cfi_def_cfa 31, 0
	ret
	.cfi_endproc
.LFE3252:
	.size	ufs_mq_insert_sync_list.isra.26, .-ufs_mq_insert_sync_list.isra.26
	.align	2
	.type	ufs_mq_sync_dispatch, %function
ufs_mq_sync_dispatch:
.LFB3179:
	.loc 1 1056 0
	.cfi_startproc
.LVL589:
	stp	x29, x30, [sp, -112]!
	.cfi_def_cfa_offset 112
	.cfi_offset 29, -112
	.cfi_offset 30, -104
	add	x29, sp, 0
	.cfi_def_cfa_register 29
	stp	x21, x22, [sp,32]
	stp	x25, x26, [sp,64]
	stp	x19, x20, [sp,16]
	stp	x23, x24, [sp,48]
	.cfi_offset 21, -80
	.cfi_offset 22, -72
	.cfi_offset 25, -48
	.cfi_offset 26, -40
	.cfi_offset 19, -96
	.cfi_offset 20, -88
	.cfi_offset 23, -64
	.cfi_offset 24, -56
	.loc 1 1056 0
	adrp	x25, __stack_chk_guard
	mov	x20, x0
	.loc 1 1062 0
	ldr	x24, [x0,13016]
.LVL590:
	.loc 1 1094 0
	mov	w26, -5
	.loc 1 1064 0
	str	xzr, [x29,88]
	.loc 1 1056 0
	ldr	x0, [x25,#:lo12:__stack_chk_guard]
.LVL591:
	add	x23, x24, 280
	str	x0, [x29,104]
	add	x21, x24, 232
	.loc 1 1072 0
	add	x22, x24, 248
.LVL592:
.L413:
	.loc 1 1069 0 discriminator 1
	mov	x0, x23
.LVL593:
	bl	_raw_spin_lock_irqsave
.LVL594:
.LBB2583:
.LBB2584:
	.loc 3 220 0
	ldr	x19, [x21]
.LBE2584:
.LBE2583:
	.loc 1 1069 0 discriminator 1
	mov	x1, x0
.LVL595:
.LBB2587:
.LBB2585:
	.loc 3 221 0
	cmp	x19, x21
	beq	.L423
.L408:
.LBE2585:
.LBE2587:
	.loc 1 1078 0
	cbz	x19, .L410
.L425:
.LBB2588:
.LBB2589:
.LBB2590:
	.loc 3 119 0
	ldr	x3, [x19]
.LBE2590:
.LBE2589:
.LBE2588:
.LBB2603:
.LBB2604:
	.loc 9 362 0
	mov	x0, x23
.LBE2604:
.LBE2603:
.LBB2606:
.LBB2597:
.LBB2596:
	.loc 3 119 0
	ldr	x2, [x19,8]
.LBB2591:
.LBB2592:
	.loc 3 104 0
	str	x2, [x3,8]
.LBB2593:
.LBB2594:
.LBB2595:
	.loc 2 276 0
	str	x3, [x2]
.LBE2595:
.LBE2594:
.LBE2593:
.LBE2592:
.LBE2591:
.LBE2596:
.LBE2597:
.LBB2598:
.LBB2599:
.LBB2600:
.LBB2601:
.LBB2602:
	str	x19, [x19]
.LBE2602:
.LBE2601:
.LBE2600:
	.loc 3 28 0
	str	x19, [x19,8]
.LBE2599:
.LBE2598:
.LBE2606:
.LBB2607:
.LBB2605:
	.loc 9 362 0
	bl	_raw_spin_unlock_irqrestore
.LVL596:
.LBE2605:
.LBE2607:
	.loc 1 1088 0
	ldr	x3, [x19,72]
	.loc 1 1090 0
	mov	x0, x19
.LBB2608:
.LBB2609:
	.loc 6 53 0
	ldr	x5, [x20,288]
.LBE2609:
.LBE2608:
	.loc 1 1090 0
	mov	x2, x24
.LBB2612:
.LBB2610:
	.loc 6 53 0
	ldr	x1, [x20,312]
.LBE2610:
.LBE2612:
	.loc 1 1090 0
	mov	x4, x20
	.loc 1 1088 0
	ldr	w6, [x3,64]
	.loc 1 1090 0
	add	x3, x29, 80
.LBB2613:
.LBB2611:
	.loc 6 53 0
	ldr	w5, [x5,w6,sxtw 2]
	ldr	x1, [x1,w5,uxtw 3]
.LBE2611:
.LBE2613:
	.loc 1 1089 0
	str	x19, [x29,80]
	.loc 1 1090 0
	bl	ufs_mq_queue_rq
.LVL597:
	.loc 1 1091 0
	cbz	w0, .L413
	.loc 1 1093 0
	cmp	w0, 2
	beq	.L424
	.loc 1 1098 0
	mov	x0, x19
.LVL598:
	bl	__blk_mq_requeue_request
.LVL599:
	.loc 1 1099 0
	ldr	x1, [x20,13016]
	mov	x0, x19
	bl	ufs_mq_insert_sync_list.isra.26
.LVL600:
	.loc 1 1100 0
	bl	ktime_get
.LVL601:
.LBB2614:
.LBB2615:
.LBB2616:
	.loc 17 233 0
	ldr	x2, [x24,352]
	mov	x1, 37888
	movk	x1, 0x7735, lsl 16
	add	x1, x2, x1
.LBE2616:
.LBE2615:
.LBB2617:
.LBB2618:
.LBB2619:
	.loc 17 146 0
	cmp	x1, x0
	bge	.L418
.LBE2619:
.LBE2618:
.LBE2617:
.LBE2614:
	.loc 1 1100 0 discriminator 4
	bl	ktime_get
.LVL602:
.LBB2620:
.LBB2621:
.LBB2622:
	.loc 17 233 0
	ldr	x2, [x24,360]
	mov	x1, 37888
	movk	x1, 0x7735, lsl 16
	add	x1, x2, x1
.LBE2622:
.LBE2621:
.LBB2623:
.LBB2624:
.LBB2625:
	.loc 17 146 0
	cmp	x1, x0
	bge	.L418
.LBE2625:
.LBE2624:
.LBE2623:
.LBE2620:
.LBB2626:
.LBB2627:
.LBB2628:
.LBB2629:
	.loc 10 492 0
	adrp	x1, .LANCHOR0
.LBE2629:
.LBE2628:
	.loc 1 764 0
	ldr	x2, [x20,13016]
.LBB2631:
.LBB2630:
	.loc 10 492 0
	mov	x3, 1
	mov	w0, 8
	add	x2, x2, 24
	ldr	x1, [x1,#:lo12:.LANCHOR0]
	bl	queue_delayed_work_on
.LVL603:
	b	.L407
.LVL604:
.L423:
.LBE2630:
.LBE2631:
.LBE2627:
.LBE2626:
.LBB2632:
.LBB2586:
	.loc 3 221 0 discriminator 1
	ldr	x0, [x21,8]
	cmp	x0, x21
	beq	.L409
	mov	x19, x21
.LBE2586:
.LBE2632:
	.loc 1 1078 0
	cbnz	x19, .L425
.L410:
.LBB2633:
.LBB2634:
	.loc 9 362 0
	mov	x0, x23
	bl	_raw_spin_unlock_irqrestore
.LVL605:
.L407:
.LBE2634:
.LBE2633:
	.loc 1 1108 0
	ldr	x1, [x29,104]
	ldr	x0, [x25,#:lo12:__stack_chk_guard]
	cmp	x1, x0
	bne	.L426
	ldp	x19, x20, [sp,16]
	.cfi_remember_state
	.cfi_restore 20
	.cfi_restore 19
.LVL606:
	ldp	x21, x22, [sp,32]
	.cfi_restore 22
	.cfi_restore 21
	ldp	x23, x24, [sp,48]
	.cfi_restore 24
	.cfi_restore 23
.LVL607:
	ldp	x25, x26, [sp,64]
	.cfi_restore 26
	.cfi_restore 25
	ldp	x29, x30, [sp], 112
	.cfi_restore 30
	.cfi_restore 29
	.cfi_def_cfa 31, 0
	ret
.LVL608:
.L409:
	.cfi_restore_state
.LBB2635:
.LBB2636:
	.loc 3 220 0
	ldr	x19, [x22]
	.loc 3 221 0
	cmp	x22, x19
	bne	.L408
	.loc 3 221 0 is_stmt 0 discriminator 1
	ldr	x0, [x22,8]
	cmp	x22, x0
	bne	.L408
	b	.L410
.LVL609:
.L418:
.LBE2636:
.LBE2635:
.LBB2637:
.LBB2638:
.LBB2639:
.LBB2640:
	.loc 10 492 0 is_stmt 1
	adrp	x1, .LANCHOR0
.LBE2640:
.LBE2639:
	.loc 1 764 0
	ldr	x2, [x20,13016]
.LBB2642:
.LBB2641:
	.loc 10 492 0
	mov	x3, 0
	mov	w0, 8
	add	x2, x2, 24
	ldr	x1, [x1,#:lo12:.LANCHOR0]
	bl	queue_delayed_work_on
.LVL610:
	b	.L407
.LVL611:
.L424:
.LBE2641:
.LBE2642:
.LBE2638:
.LBE2637:
	.loc 1 1094 0
	str	w26, [x19,564]
	.loc 1 1095 0
	mov	x0, x19
.LVL612:
	mov	w1, -5
	bl	blk_mq_end_request
.LVL613:
	.loc 1 1096 0
	b	.L413
.L426:
	.loc 1 1108 0
	bl	__stack_chk_fail
.LVL614:
	.cfi_endproc
.LFE3179:
	.size	ufs_mq_sync_dispatch, .-ufs_mq_sync_dispatch
	.align	2
	.type	ufs_mq_sync_io_dispatch_work_fn, %function
ufs_mq_sync_io_dispatch_work_fn:
.LFB3180:
	.loc 1 1111 0
	.cfi_startproc
.LVL615:
	stp	x29, x30, [sp, -16]!
	.cfi_def_cfa_offset 16
	.cfi_offset 29, -16
	.cfi_offset 30, -8
	add	x29, sp, 0
	.cfi_def_cfa_register 29
	.loc 1 1113 0
	ldr	x0, [x0,96]
.LVL616:
	bl	ufs_mq_sync_dispatch
.LVL617:
	.loc 1 1114 0
	ldp	x29, x30, [sp], 16
	.cfi_restore 30
	.cfi_restore 29
	.cfi_def_cfa 31, 0
	ret
	.cfi_endproc
.LFE3180:
	.size	ufs_mq_sync_io_dispatch_work_fn, .-ufs_mq_sync_io_dispatch_work_fn
	.align	2
	.type	ufs_mq_run_requeue, %function
ufs_mq_run_requeue:
.LFB3219:
	.loc 1 1657 0
	.cfi_startproc
.LVL618:
	stp	x29, x30, [sp, -64]!
	.cfi_def_cfa_offset 64
	.cfi_offset 29, -64
	.cfi_offset 30, -56
.LBB2661:
.LBB2662:
.LBB2663:
.LBB2664:
.LBB2665:
	.loc 10 492 0
	mov	x3, 0
.LBE2665:
.LBE2664:
.LBE2663:
.LBE2662:
.LBE2661:
	.loc 1 1657 0
	add	x29, sp, 0
	.cfi_def_cfa_register 29
	stp	x19, x20, [sp,16]
	.cfi_offset 19, -48
	.cfi_offset 20, -40
	mov	x19, x0
.LBB2674:
.LBB2672:
.LBB2670:
.LBB2668:
.LBB2666:
	.loc 10 492 0
	mov	w0, 8
.LVL619:
.LBE2666:
.LBE2668:
.LBE2670:
.LBE2672:
.LBE2674:
	.loc 1 1657 0
	stp	x21, x22, [sp,32]
	.cfi_offset 21, -32
	.cfi_offset 22, -24
.LBB2675:
.LBB2673:
.LBB2671:
	.loc 1 764 0
	adrp	x21, .LANCHOR0
	ldr	x2, [x19,13016]
.LBB2669:
.LBB2667:
	.loc 10 492 0
	ldr	x1, [x21,#:lo12:.LANCHOR0]
	add	x2, x2, 24
	bl	queue_delayed_work_on
.LVL620:
.LBE2667:
.LBE2669:
.LBE2671:
.LBE2673:
.LBE2675:
.LBB2676:
.LBB2677:
	.loc 1 1231 0
	ldr	x0, [x19,13024]
	.loc 1 1230 0
	ldr	x2, [x19,13016]
.LVL621:
	.loc 1 1231 0
	cbz	x0, .L429
	.loc 1 1231 0 is_stmt 0 discriminator 1
	ldr	x22, [x0,208]
	cbz	x22, .L429
.LBB2678:
	.loc 1 1233 0 is_stmt 1
	ldr	x0, [x22]
	ldr	x0, [x0,48]
	cbz	x0, .L429
.LBB2679:
.LBB2680:
	.loc 9 291 0
	add	x20, x2, 304
.LBE2680:
.LBE2679:
	.loc 1 1234 0 discriminator 1
	mov	x0, x20
	bl	_raw_spin_lock_irqsave
.LVL622:
	str	x0, [x29,56]
	.loc 1 1235 0
	ldr	x2, [x22]
	mov	x0, x19
.LVL623:
	ldr	x2, [x2,48]
	blr	x2
.LVL624:
	uxtb	w22, w0
.LVL625:
.LBB2681:
.LBB2682:
	.loc 9 362 0
	ldr	x1, [x29,56]
.LVL626:
	mov	x0, x20
	bl	_raw_spin_unlock_irqrestore
.LVL627:
.LBE2682:
.LBE2681:
.LBE2678:
.LBE2677:
.LBE2676:
	.loc 1 1659 0
	cbz	w22, .L434
	.loc 1 1662 0
	ldp	x19, x20, [sp,16]
	.cfi_remember_state
	.cfi_restore 20
	.cfi_restore 19
.LVL628:
	ldp	x21, x22, [sp,32]
	.cfi_restore 22
	.cfi_restore 21
.LVL629:
	mov	w0, 0
	ldp	x29, x30, [sp], 64
	.cfi_restore 30
	.cfi_restore 29
	.cfi_def_cfa 31, 0
	ret
.LVL630:
.L434:
	.cfi_restore_state
	ldr	x2, [x19,13016]
.LVL631:
.L429:
.LBB2683:
.LBB2684:
.LBB2685:
	.loc 1 1185 0
	add	x21, x21, :lo12:.LANCHOR0
.LBB2686:
.LBB2687:
	.loc 10 492 0
	add	x2, x2, 128
.LVL632:
	mov	x3, 0
	mov	w0, 8
	ldr	x1, [x21,8]
	bl	queue_delayed_work_on
.LVL633:
.LBE2687:
.LBE2686:
.LBE2685:
.LBE2684:
.LBE2683:
	.loc 1 1662 0
	mov	w0, 0
	ldp	x19, x20, [sp,16]
	.cfi_restore 19
	.cfi_restore 20
.LVL634:
	ldp	x21, x22, [sp,32]
	.cfi_restore 21
	.cfi_restore 22
.LVL635:
	ldp	x29, x30, [sp], 64
	.cfi_restore 29
	.cfi_restore 30
	.cfi_def_cfa 31, 0
	ret
	.cfi_endproc
.LFE3219:
	.size	ufs_mq_run_requeue, .-ufs_mq_run_requeue
	.align	2
	.type	ufs_mq_exec_queue, %function
ufs_mq_exec_queue:
.LFB3216:
	.loc 1 1633 0
	.cfi_startproc
.LVL636:
	stp	x29, x30, [sp, -64]!
	.cfi_def_cfa_offset 64
	.cfi_offset 29, -64
	.cfi_offset 30, -56
	add	x29, sp, 0
	.cfi_def_cfa_register 29
	stp	x19, x20, [sp,16]
	.cfi_offset 19, -48
	.cfi_offset 20, -40
	mov	x20, x0
	str	x21, [sp,32]
	.cfi_offset 21, -32
	.loc 1 1634 0
	bl	ufs_mq_sync_dispatch
.LVL637:
.LBB2710:
.LBB2711:
	.loc 1 1231 0
	ldr	x0, [x20,13024]
	.loc 1 1230 0
	ldr	x2, [x20,13016]
.LVL638:
	.loc 1 1231 0
	cbz	x0, .L436
	.loc 1 1231 0 is_stmt 0 discriminator 1
	ldr	x21, [x0,208]
	cbz	x21, .L436
.LBB2712:
	.loc 1 1233 0 is_stmt 1
	ldr	x0, [x21]
	ldr	x0, [x0,48]
	cbz	x0, .L436
.LBB2713:
.LBB2714:
	.loc 9 291 0
	add	x19, x2, 304
.LBE2714:
.LBE2713:
	.loc 1 1234 0 discriminator 1
	mov	x0, x19
	bl	_raw_spin_lock_irqsave
.LVL639:
	str	x0, [x29,56]
	.loc 1 1235 0
	ldr	x2, [x21]
	mov	x0, x20
.LVL640:
	ldr	x2, [x2,48]
	blr	x2
.LVL641:
	uxtb	w21, w0
.LVL642:
.LBB2715:
.LBB2716:
	.loc 9 362 0
	ldr	x1, [x29,56]
.LVL643:
	mov	x0, x19
	bl	_raw_spin_unlock_irqrestore
.LVL644:
.LBE2716:
.LBE2715:
.LBE2712:
.LBE2711:
.LBE2710:
	.loc 1 1635 0
	cbz	w21, .L441
	.loc 1 1638 0
	ldp	x19, x20, [sp,16]
	.cfi_remember_state
	.cfi_restore 20
	.cfi_restore 19
.LVL645:
	ldr	x21, [sp,32]
	.cfi_restore 21
.LVL646:
	mov	w0, 0
	ldp	x29, x30, [sp], 64
	.cfi_restore 30
	.cfi_restore 29
	.cfi_def_cfa 31, 0
	ret
.LVL647:
.L441:
	.cfi_restore_state
	ldr	x2, [x20,13016]
.LVL648:
.L436:
.LBB2717:
.LBB2718:
.LBB2719:
.LBB2720:
.LBB2721:
.LBB2722:
	.loc 10 492 0
	adrp	x1, .LANCHOR0+8
	add	x2, x2, 128
.LVL649:
	mov	x3, 0
	mov	w0, 8
	ldr	x1, [x1,#:lo12:.LANCHOR0+8]
	bl	queue_delayed_work_on
.LVL650:
.LBE2722:
.LBE2721:
.LBE2720:
.LBE2719:
.LBE2718:
.LBE2717:
	.loc 1 1638 0
	ldr	x21, [sp,32]
	.cfi_restore 21
.LVL651:
	ldp	x19, x20, [sp,16]
	.cfi_restore 19
	.cfi_restore 20
.LVL652:
	mov	w0, 0
	ldp	x29, x30, [sp], 64
	.cfi_restore 29
	.cfi_restore 30
	.cfi_def_cfa 31, 0
	ret
	.cfi_endproc
.LFE3216:
	.size	ufs_mq_exec_queue, .-ufs_mq_exec_queue
	.align	2
	.type	ufs_mq_io_guard_work_fn, %function
ufs_mq_io_guard_work_fn:
.LFB3205:
	.loc 1 1484 0
	.cfi_startproc
.LVL653:
	stp	x29, x30, [sp, -64]!
	.cfi_def_cfa_offset 64
	.cfi_offset 29, -64
	.cfi_offset 30, -56
	add	x29, sp, 0
	.cfi_def_cfa_register 29
	stp	x21, x22, [sp,32]
	.cfi_offset 21, -32
	.cfi_offset 22, -24
.LBB2761:
.LBB2762:
	.loc 9 302 0
	adrp	x22, .LANCHOR2
.LBE2762:
.LBE2761:
	.loc 1 1484 0
	str	x23, [sp,48]
	.cfi_offset 23, -16
.LBB2765:
.LBB2763:
	.loc 9 302 0
	add	x23, x22, :lo12:.LANCHOR2
	adrp	x21, .LANCHOR0
	mov	x0, x23
.LVL654:
.LBE2763:
.LBE2765:
	.loc 1 1484 0
	stp	x19, x20, [sp,16]
	.cfi_offset 19, -48
	.cfi_offset 20, -40
.LBB2766:
.LBB2764:
	.loc 9 302 0
	bl	_raw_spin_lock
.LVL655:
.LBE2764:
.LBE2766:
.LBB2767:
.LBB2768:
	.loc 9 347 0
	mov	x20, x23
.LBE2768:
.LBE2767:
.LBB2770:
	.loc 1 1488 0
	ldr	x19, [x23,32]!
.LVL656:
.LBE2770:
	.loc 1 1488 0 is_stmt 0 discriminator 1
	cmp	x19, x23
.LBB2771:
	.loc 1 1488 0
	sub	x19, x19, #432
.LVL657:
.LBE2771:
	.loc 1 1488 0 discriminator 1
	bne	.L452
	b	.L447
.L444:
.LBB2772:
.LBB2773:
.LBB2774:
.LBB2775:
.LBB2776:
	.loc 2 247 0 is_stmt 1 discriminator 4
	ldr	w0, [x1,1168]
.LBE2776:
.LBE2775:
.LBE2774:
	.loc 1 1478 0 discriminator 5
	cbz	w0, .L445
.LBB2777:
.LBB2778:
.LBB2779:
	.loc 2 247 0 discriminator 4
	ldr	w0, [x19,16]
.LBE2779:
.LBE2778:
.LBE2777:
	.loc 1 1478 0
	cbnz	w0, .L445
.LBB2780:
.LBB2781:
.LBB2782:
	.loc 1 1185 0
	add	x4, x21, :lo12:.LANCHOR0
	ldr	x2, [x1,13016]
.LBB2783:
.LBB2784:
	.loc 10 492 0
	mov	x3, 0
	mov	w0, 8
	add	x2, x2, 128
	ldr	x1, [x4,8]
	bl	queue_delayed_work_on
.LVL658:
.L445:
.LBE2784:
.LBE2783:
.LBE2782:
.LBE2781:
.LBE2780:
.LBE2773:
.LBE2772:
.LBB2798:
.LBB2799:
	.loc 9 302 0
	mov	x0, x20
	bl	_raw_spin_lock
.LVL659:
.LBE2799:
.LBE2798:
.LBB2800:
	.loc 1 1488 0 discriminator 3
	ldr	x19, [x19,432]
.LVL660:
.LBE2800:
	.loc 1 1488 0 is_stmt 0 discriminator 1
	cmp	x19, x23
.LBB2801:
	.loc 1 1488 0 discriminator 3
	sub	x19, x19, #432
.LVL661:
.LBE2801:
	.loc 1 1488 0 discriminator 1
	beq	.L447
.L452:
.LBB2802:
.LBB2769:
	.loc 9 347 0 is_stmt 1
	mov	x0, x20
	bl	_raw_spin_unlock
.LVL662:
.LBE2769:
.LBE2802:
.LBB2803:
.LBB2797:
.LBB2785:
	.loc 1 1473 0 discriminator 1
	ldr	x1, [x19]
.LBB2786:
.LBB2787:
	.loc 2 247 0 discriminator 4
	ldr	w0, [x1,1172]
.LBE2787:
.LBE2786:
.LBE2785:
.LBB2788:
.LBB2789:
.LBB2790:
	ldr	w2, [x1,1164]
.LBE2790:
.LBE2789:
.LBE2788:
	.loc 1 1473 0
	cmn	w0, w2
	beq	.L444
.LBB2791:
.LBB2792:
.LBB2793:
	.loc 2 247 0 discriminator 4
	ldr	w0, [x19,8]
.LBE2793:
.LBE2792:
.LBE2791:
.LBB2794:
.LBB2795:
.LBB2796:
	ldr	w2, [x19,12]
.LBE2796:
.LBE2795:
.LBE2794:
	.loc 1 1474 0
	cmn	w0, w2
	bne	.L444
	.loc 1 1476 0
	mov	x0, x1
	bl	ufs_mq_sync_dispatch
.LVL663:
	ldr	x1, [x19]
	b	.L444
.L447:
.LBE2797:
.LBE2803:
.LBB2804:
.LBB2805:
	.loc 9 347 0
	add	x0, x22, :lo12:.LANCHOR2
.LBE2805:
.LBE2804:
	.loc 1 1494 0
	add	x21, x21, :lo12:.LANCHOR0
.LBB2807:
.LBB2806:
	.loc 9 347 0
	bl	_raw_spin_unlock
.LVL664:
.LBE2806:
.LBE2807:
.LBB2808:
.LBB2809:
	.loc 10 492 0
	ldr	x1, [x21,16]
	add	x2, x21, 24
	mov	x3, 500
	mov	w0, 8
	bl	queue_delayed_work_on
.LVL665:
.LBE2809:
.LBE2808:
	.loc 1 1495 0
	ldr	x23, [sp,48]
	.cfi_restore 23
	ldp	x19, x20, [sp,16]
	.cfi_restore 20
	.cfi_restore 19
.LVL666:
	ldp	x21, x22, [sp,32]
	.cfi_restore 22
	.cfi_restore 21
	ldp	x29, x30, [sp], 64
	.cfi_restore 30
	.cfi_restore 29
	.cfi_def_cfa 31, 0
	ret
	.cfi_endproc
.LFE3205:
	.size	ufs_mq_io_guard_work_fn, .-ufs_mq_io_guard_work_fn
	.align	2
	.type	ufs_mq_run_hw_queue, %function
ufs_mq_run_hw_queue:
.LFB3217:
	.loc 1 1641 0
	.cfi_startproc
.LVL667:
	stp	x29, x30, [sp, -64]!
	.cfi_def_cfa_offset 64
	.cfi_offset 29, -64
	.cfi_offset 30, -56
.LBB2828:
.LBB2829:
.LBB2830:
.LBB2831:
.LBB2832:
	.loc 10 492 0
	mov	x3, 0
.LBE2832:
.LBE2831:
.LBE2830:
.LBE2829:
.LBE2828:
	.loc 1 1641 0
	add	x29, sp, 0
	.cfi_def_cfa_register 29
	stp	x19, x20, [sp,16]
	.cfi_offset 19, -48
	.cfi_offset 20, -40
	mov	x19, x0
.LBB2841:
.LBB2839:
.LBB2837:
.LBB2835:
.LBB2833:
	.loc 10 492 0
	mov	w0, 8
.LVL668:
.LBE2833:
.LBE2835:
.LBE2837:
.LBE2839:
.LBE2841:
	.loc 1 1641 0
	stp	x21, x22, [sp,32]
	.cfi_offset 21, -32
	.cfi_offset 22, -24
.LBB2842:
.LBB2840:
.LBB2838:
	.loc 1 764 0
	adrp	x21, .LANCHOR0
	ldr	x2, [x19,13016]
.LBB2836:
.LBB2834:
	.loc 10 492 0
	ldr	x1, [x21,#:lo12:.LANCHOR0]
	add	x2, x2, 24
	bl	queue_delayed_work_on
.LVL669:
.LBE2834:
.LBE2836:
.LBE2838:
.LBE2840:
.LBE2842:
.LBB2843:
.LBB2844:
	.loc 1 1231 0
	ldr	x0, [x19,13024]
	.loc 1 1230 0
	ldr	x2, [x19,13016]
.LVL670:
	.loc 1 1231 0
	cbz	x0, .L458
	.loc 1 1231 0 is_stmt 0 discriminator 1
	ldr	x22, [x0,208]
	cbz	x22, .L458
.LBB2845:
	.loc 1 1233 0 is_stmt 1
	ldr	x0, [x22]
	ldr	x0, [x0,48]
	cbz	x0, .L458
.LBB2846:
.LBB2847:
	.loc 9 291 0
	add	x20, x2, 304
.LBE2847:
.LBE2846:
	.loc 1 1234 0 discriminator 1
	mov	x0, x20
	bl	_raw_spin_lock_irqsave
.LVL671:
	str	x0, [x29,56]
	.loc 1 1235 0
	ldr	x2, [x22]
	mov	x0, x19
.LVL672:
	ldr	x2, [x2,48]
	blr	x2
.LVL673:
	uxtb	w22, w0
.LVL674:
.LBB2848:
.LBB2849:
	.loc 9 362 0
	ldr	x1, [x29,56]
.LVL675:
	mov	x0, x20
	bl	_raw_spin_unlock_irqrestore
.LVL676:
.LBE2849:
.LBE2848:
.LBE2845:
.LBE2844:
.LBE2843:
	.loc 1 1643 0
	cbz	w22, .L463
	.loc 1 1646 0
	ldp	x19, x20, [sp,16]
	.cfi_remember_state
	.cfi_restore 20
	.cfi_restore 19
.LVL677:
	ldp	x21, x22, [sp,32]
	.cfi_restore 22
	.cfi_restore 21
.LVL678:
	mov	w0, 0
	ldp	x29, x30, [sp], 64
	.cfi_restore 30
	.cfi_restore 29
	.cfi_def_cfa 31, 0
	ret
.LVL679:
.L463:
	.cfi_restore_state
	ldr	x2, [x19,13016]
.LVL680:
.L458:
.LBB2850:
.LBB2851:
.LBB2852:
	.loc 1 1185 0
	add	x21, x21, :lo12:.LANCHOR0
.LBB2853:
.LBB2854:
	.loc 10 492 0
	add	x2, x2, 128
.LVL681:
	mov	x3, 0
	mov	w0, 8
	ldr	x1, [x21,8]
	bl	queue_delayed_work_on
.LVL682:
.LBE2854:
.LBE2853:
.LBE2852:
.LBE2851:
.LBE2850:
	.loc 1 1646 0
	mov	w0, 0
	ldp	x19, x20, [sp,16]
	.cfi_restore 19
	.cfi_restore 20
.LVL683:
	ldp	x21, x22, [sp,32]
	.cfi_restore 21
	.cfi_restore 22
.LVL684:
	ldp	x29, x30, [sp], 64
	.cfi_restore 29
	.cfi_restore 30
	.cfi_def_cfa 31, 0
	ret
	.cfi_endproc
.LFE3217:
	.size	ufs_mq_run_hw_queue, .-ufs_mq_run_hw_queue
	.align	2
	.type	ufs_mq_req_requeue, %function
ufs_mq_req_requeue:
.LFB3211:
	.loc 1 1558 0
	.cfi_startproc
.LVL685:
	stp	x29, x30, [sp, -48]!
	.cfi_def_cfa_offset 48
	.cfi_offset 29, -48
	.cfi_offset 30, -40
	mov	x3, x1
	add	x29, sp, 0
	.cfi_def_cfa_register 29
	stp	x19, x20, [sp,16]
	str	x21, [sp,32]
	.cfi_offset 19, -32
	.cfi_offset 20, -24
	.cfi_offset 21, -16
	.loc 1 1558 0
	mov	x20, x0
	.loc 1 1559 0
	ldr	x2, [x0,88]
	tbz	x2, 3, .L470
.L465:
	ldr	x19, [x3,13016]
.LVL686:
.LBB2868:
.LBB2869:
	.loc 1 776 0
	mov	w1, 4
.LVL687:
	mov	x0, x20
.LBB2870:
.LBB2871:
	.loc 9 291 0
	add	x21, x19, 280
.LBE2871:
.LBE2870:
	.loc 1 776 0
	bl	hisi_blk_latency_req_check
.LVL688:
	.loc 1 777 0 discriminator 1
	mov	x0, x21
	bl	_raw_spin_lock_irqsave
.LVL689:
	mov	x1, x0
.LVL690:
	.loc 1 778 0
	ldr	x2, [x20,88]
	.loc 1 778 0 is_stmt 0 discriminator 1
	add	x3, x19, 232
	add	x19, x19, 248
.LVL691:
.LBB2872:
.LBB2873:
	.loc 9 362 0 is_stmt 1
	mov	x0, x21
.LBE2873:
.LBE2872:
	.loc 1 778 0
	and	x2, x2, 2048
	.loc 1 778 0 is_stmt 0 discriminator 1
	cmp	x2, xzr
	csel	x19, x19, x3, eq
.LBB2875:
.LBB2876:
	.loc 3 92 0 is_stmt 1
	ldr	x2, [x19,8]
.LBB2877:
.LBB2878:
	.loc 3 62 0
	str	x20, [x19,8]
	.loc 3 63 0
	str	x19, [x20]
	.loc 3 64 0
	str	x2, [x20,8]
.LBB2879:
.LBB2880:
.LBB2881:
	.loc 2 276 0
	str	x20, [x2]
.LBE2881:
.LBE2880:
.LBE2879:
.LBE2878:
.LBE2877:
.LBE2876:
.LBE2875:
.LBB2882:
.LBB2874:
	.loc 9 362 0
	bl	_raw_spin_unlock_irqrestore
.LVL692:
.L469:
.LBE2874:
.LBE2882:
.LBE2869:
.LBE2868:
	.loc 1 1564 0
	mov	w0, 0
	ldr	x21, [sp,32]
	.cfi_remember_state
	.cfi_restore 21
	ldp	x19, x20, [sp,16]
	.cfi_restore 20
	.cfi_restore 19
.LVL693:
	ldp	x29, x30, [sp], 48
	.cfi_restore 30
	.cfi_restore 29
	.cfi_def_cfa 31, 0
	ret
.LVL694:
.L470:
	.cfi_restore_state
	.loc 1 1559 0 discriminator 1
	ldr	w2, [x0,84]
	cmp	w2, 1
	bne	.L465
	.loc 1 1562 0
	bl	ufs_mq_insert_async_list
.LVL695:
	b	.L469
	.cfi_endproc
.LFE3211:
	.size	ufs_mq_req_requeue, .-ufs_mq_req_requeue
	.align	2
	.type	ufs_mq_req_insert, %function
ufs_mq_req_insert:
.LFB3210:
	.loc 1 1549 0
	.cfi_startproc
.LVL696:
	stp	x29, x30, [sp, -48]!
	.cfi_def_cfa_offset 48
	.cfi_offset 29, -48
	.cfi_offset 30, -40
	mov	x3, x1
	add	x29, sp, 0
	.cfi_def_cfa_register 29
	stp	x19, x20, [sp,16]
	str	x21, [sp,32]
	.cfi_offset 19, -32
	.cfi_offset 20, -24
	.cfi_offset 21, -16
	.loc 1 1549 0
	mov	x20, x0
	.loc 1 1550 0
	ldr	x2, [x0,88]
.LVL697:
	tbz	x2, 3, .L477
.L472:
	ldr	x19, [x3,13016]
.LVL698:
.LBB2896:
.LBB2897:
	.loc 1 776 0
	mov	w1, 4
.LVL699:
	mov	x0, x20
.LBB2898:
.LBB2899:
	.loc 9 291 0
	add	x21, x19, 280
.LBE2899:
.LBE2898:
	.loc 1 776 0
	bl	hisi_blk_latency_req_check
.LVL700:
	.loc 1 777 0 discriminator 1
	mov	x0, x21
	bl	_raw_spin_lock_irqsave
.LVL701:
	mov	x1, x0
.LVL702:
	.loc 1 778 0
	ldr	x2, [x20,88]
	.loc 1 778 0 is_stmt 0 discriminator 1
	add	x3, x19, 232
	add	x19, x19, 248
.LVL703:
.LBB2900:
.LBB2901:
	.loc 9 362 0 is_stmt 1
	mov	x0, x21
.LBE2901:
.LBE2900:
	.loc 1 778 0
	and	x2, x2, 2048
	.loc 1 778 0 is_stmt 0 discriminator 1
	cmp	x2, xzr
	csel	x19, x19, x3, eq
.LBB2903:
.LBB2904:
	.loc 3 92 0 is_stmt 1
	ldr	x2, [x19,8]
.LBB2905:
.LBB2906:
	.loc 3 62 0
	str	x20, [x19,8]
	.loc 3 63 0
	str	x19, [x20]
	.loc 3 64 0
	str	x2, [x20,8]
.LBB2907:
.LBB2908:
.LBB2909:
	.loc 2 276 0
	str	x20, [x2]
.LBE2909:
.LBE2908:
.LBE2907:
.LBE2906:
.LBE2905:
.LBE2904:
.LBE2903:
.LBB2910:
.LBB2902:
	.loc 9 362 0
	bl	_raw_spin_unlock_irqrestore
.LVL704:
.L476:
.LBE2902:
.LBE2910:
.LBE2897:
.LBE2896:
	.loc 1 1555 0
	mov	w0, 0
	ldr	x21, [sp,32]
	.cfi_remember_state
	.cfi_restore 21
	ldp	x19, x20, [sp,16]
	.cfi_restore 20
	.cfi_restore 19
.LVL705:
	ldp	x29, x30, [sp], 48
	.cfi_restore 30
	.cfi_restore 29
	.cfi_def_cfa 31, 0
	ret
.LVL706:
.L477:
	.cfi_restore_state
	.loc 1 1550 0 discriminator 1
	ldr	w2, [x0,84]
	cmp	w2, 1
	bne	.L472
	.loc 1 1553 0
	bl	ufs_mq_insert_async_list
.LVL707:
	b	.L476
	.cfi_endproc
.LFE3210:
	.size	ufs_mq_req_insert, .-ufs_mq_req_insert
	.align	2
	.global	ufs_mq_merge_queue_io
	.type	ufs_mq_merge_queue_io, %function
ufs_mq_merge_queue_io:
.LFB3173:
	.loc 1 833 0
	.cfi_startproc
.LVL708:
	stp	x29, x30, [sp, -96]!
	.cfi_def_cfa_offset 96
	.cfi_offset 29, -96
	.cfi_offset 30, -88
.LBB2935:
.LBB2936:
	.file 19 "/mnt/disk/jenkins/ci/workspace/chipset_GLK_patch/opensource/component_code/vendor/huawei/extra/build/build_script/kirin_kernel_release/kernel/include/linux/bio.h"
	.loc 19 99 0
	mov	w4, 768
.LBE2936:
.LBE2935:
	.loc 1 833 0
	add	x29, sp, 0
	.cfi_def_cfa_register 29
	stp	x19, x20, [sp,16]
	stp	x21, x22, [sp,32]
	stp	x23, x24, [sp,48]
	str	x25, [sp,64]
	.cfi_offset 19, -80
	.cfi_offset 20, -72
	.cfi_offset 21, -64
	.cfi_offset 22, -56
	.cfi_offset 23, -48
	.cfi_offset 24, -40
	.cfi_offset 25, -32
	.loc 1 833 0
	mov	x21, x0
.LBB2940:
.LBB2937:
	.loc 19 99 0
	movk	w4, 0x807, lsl 16
.LBE2937:
.LBE2940:
	.loc 1 833 0
	mov	x20, x1
.LBB2941:
.LBB2938:
	.loc 19 99 0
	ldr	w0, [x3,20]
.LVL709:
.LBE2938:
.LBE2941:
	.loc 1 833 0
	mov	x19, x2
.LBB2942:
.LBB2939:
	.loc 19 99 0
	tst	w0, w4
	bne	.L487
.LBE2939:
.LBE2942:
	.loc 1 834 0 discriminator 1
	ldr	w0, [x2,84]
	cmp	w0, 2
	beq	.L487
.LBB2943:
.LBB2944:
.LBB2945:
	.loc 9 302 0
	mov	x0, x20
	str	x3, [x29,88]
.LBE2945:
.LBE2944:
	.loc 1 843 0
	ldr	x22, [x21,120]
.LVL710:
.LBB2947:
.LBB2946:
	.loc 9 302 0
	bl	_raw_spin_lock
.LVL711:
.LBE2946:
.LBE2947:
.LBB2948:
.LBB2949:
	.loc 1 816 0
	ldr	x3, [x29,88]
.LVL712:
	.loc 1 815 0
	ldr	x23, [x22,13016]
.LVL713:
	.loc 1 816 0
	ldr	w0, [x3,20]
	tbnz	x0, 3, .L486
	.loc 1 818 0
	ldr	x0, [x22,13024]
	cbz	x0, .L486
	.loc 1 818 0 is_stmt 0 discriminator 1
	ldr	x24, [x0,208]
	cbz	x24, .L486
.LBB2950:
	.loc 1 820 0 is_stmt 1
	ldr	x0, [x24]
	ldr	x0, [x0,40]
	cbz	x0, .L486
.LBB2951:
.LBB2952:
	.loc 9 291 0
	add	x23, x23, 304
.LVL714:
	str	x3, [x29,88]
.LBE2952:
.LBE2951:
	.loc 1 821 0 discriminator 1
	mov	x0, x23
	bl	_raw_spin_lock_irqsave
.LVL715:
	mov	x25, x0
.LVL716:
	.loc 1 822 0
	ldr	x2, [x24]
	mov	x1, x22
	ldr	x3, [x29,88]
.LVL717:
	ldr	x2, [x2,40]
	mov	x0, x3
	blr	x2
.LVL718:
	uxtb	w22, w0
.LVL719:
.LBB2953:
.LBB2954:
	.loc 9 362 0
	mov	x1, x25
	mov	x0, x23
	bl	_raw_spin_unlock_irqrestore
.LVL720:
.LBE2954:
.LBE2953:
.LBE2950:
.LBE2949:
.LBE2948:
	.loc 1 847 0
	ldr	x3, [x29,88]
.LVL721:
	cbz	w22, .L486
.LBB2955:
.LBB2956:
	.loc 9 347 0
	mov	x0, x20
	bl	_raw_spin_unlock
.LVL722:
.LBE2956:
.LBE2955:
	.loc 1 853 0
	mov	x0, x21
	mov	x1, x20
	mov	x2, x19
	bl	__blk_mq_free_request
.LVL723:
.LBE2943:
	.loc 1 856 0
	ldr	x25, [sp,64]
	.cfi_remember_state
	.cfi_restore 25
.LVL724:
	ldp	x19, x20, [sp,16]
	.cfi_restore 19
	.cfi_restore 20
.LVL725:
	ldp	x21, x22, [sp,32]
	.cfi_restore 21
	.cfi_restore 22
.LVL726:
	ldp	x23, x24, [sp,48]
	.cfi_restore 23
	.cfi_restore 24
.LBB2959:
	.loc 1 854 0
	mov	w0, 1
.LBE2959:
	.loc 1 856 0
	ldp	x29, x30, [sp], 96
	.cfi_restore 29
	.cfi_restore 30
	.cfi_def_cfa 31, 0
	ret
.LVL727:
.L487:
	.cfi_restore_state
.LBB2960:
.LBB2961:
	.loc 1 807 0
	mov	x1, x3
	mov	x0, x19
	bl	init_request_from_bio
.LVL728:
	.loc 1 808 0
	mov	x0, x19
	mov	w1, 1
	bl	blk_account_io_start
.LVL729:
.LBE2961:
.LBE2960:
.LBB2962:
.LBB2963:
	.loc 9 302 0
	mov	x0, x20
	bl	_raw_spin_lock
.LVL730:
.L480:
.LBE2963:
.LBE2962:
.LBB2964:
.LBB2965:
	.loc 1 1550 0
	ldr	x0, [x19,88]
.LBE2965:
.LBE2964:
	.loc 1 838 0
	ldr	x1, [x21,120]
.LBB2968:
.LBB2966:
	.loc 1 1550 0
	tbz	x0, 3, .L506
.L481:
	.loc 1 1551 0
	ldr	x1, [x1,13016]
	mov	x0, x19
	bl	ufs_mq_insert_sync_list.isra.26
.LVL731:
.L483:
.LBE2966:
.LBE2968:
.LBB2969:
.LBB2970:
	.loc 9 347 0
	mov	x0, x20
	bl	_raw_spin_unlock
.LVL732:
.LBE2970:
.LBE2969:
	.loc 1 856 0
	ldr	x25, [sp,64]
	.cfi_remember_state
	.cfi_restore 25
.LVL733:
	ldp	x19, x20, [sp,16]
	.cfi_restore 20
	.cfi_restore 19
.LVL734:
	ldp	x21, x22, [sp,32]
	.cfi_restore 22
	.cfi_restore 21
.LVL735:
	ldp	x23, x24, [sp,48]
	.cfi_restore 24
	.cfi_restore 23
.LVL736:
	.loc 1 841 0
	mov	w0, 0
	.loc 1 856 0
	ldp	x29, x30, [sp], 96
	.cfi_restore 30
	.cfi_restore 29
	.cfi_def_cfa 31, 0
	ret
.LVL737:
.L486:
	.cfi_restore_state
.LBB2971:
.LBB2957:
.LBB2958:
	.loc 1 807 0
	mov	x1, x3
	mov	x0, x19
	bl	init_request_from_bio
.LVL738:
	.loc 1 808 0
	mov	x0, x19
	mov	w1, 1
	bl	blk_account_io_start
.LVL739:
	b	.L480
.L506:
.LBE2958:
.LBE2957:
.LBE2971:
.LBB2972:
.LBB2967:
	.loc 1 1550 0 discriminator 1
	ldr	w0, [x19,84]
	cmp	w0, 1
	bne	.L481
	.loc 1 1553 0
	mov	x0, x19
	bl	ufs_mq_insert_async_list
.LVL740:
	b	.L483
.LBE2967:
.LBE2972:
	.cfi_endproc
.LFE3173:
	.size	ufs_mq_merge_queue_io, .-ufs_mq_merge_queue_io
	.align	2
	.type	ufs_mq_make_request, %function
ufs_mq_make_request:
.LFB3178:
	.loc 1 970 0
	.cfi_startproc
.LVL741:
	stp	x29, x30, [sp, -144]!
	.cfi_def_cfa_offset 144
	.cfi_offset 29, -144
	.cfi_offset 30, -136
	.loc 1 977 0
	mov	x2, x1
	.loc 1 970 0
	add	x29, sp, 0
	.cfi_def_cfa_register 29
	stp	x21, x22, [sp,32]
	stp	x23, x24, [sp,48]
	stp	x25, x26, [sp,64]
	stp	x19, x20, [sp,16]
	.cfi_offset 21, -112
	.cfi_offset 22, -104
	.cfi_offset 23, -96
	.cfi_offset 24, -88
	.cfi_offset 25, -80
	.cfi_offset 26, -72
	.cfi_offset 19, -128
	.cfi_offset 20, -120
	.loc 1 970 0
	mov	x21, x0
	adrp	x24, __stack_chk_guard
	.loc 1 977 0
	ldr	w0, [x1,20]
.LVL742:
	.loc 1 970 0
	str	x1, [x29,88]
	.loc 1 977 0
	lsr	w1, w0, 29
.LVL743:
	.loc 1 970 0
	ldr	x3, [x24,#:lo12:__stack_chk_guard]
.LBB3089:
.LBB3090:
	.loc 1 795 0
	cmp	w1, 5
.LBE3090:
.LBE3089:
	.loc 1 970 0
	str	x3, [x29,136]
.LBB3127:
.LBB3122:
	.loc 1 795 0
	cset	w25, eq
	cmp	w1, wzr
	cset	w22, eq
.LBE3122:
.LBE3127:
	.loc 1 978 0
	ldr	x19, [x21,13016]
.LVL744:
.LBB3128:
.LBB3123:
	.loc 1 795 0
	orr	w22, w25, w22
	cbz	w22, .L588
.L508:
	.loc 1 797 0
	orr	w0, w0, 8
	str	w0, [x2,20]
.LBB3091:
.LBB3092:
.LBB3093:
.LBB3094:
.LBB3095:
	.loc 2 247 0 discriminator 4
	ldr	w0, [x19,424]
.LBE3095:
.LBE3094:
.LBE3093:
	.loc 1 620 0 discriminator 5
	cbz	w0, .L511
	cmp	w0, 1
	beq	.L512
	.loc 1 637 0
	bl	ktime_get
.LVL745:
.LBE3092:
.LBE3091:
	.loc 1 799 0
	mov	w22, 1
.LBB3118:
.LBB3114:
	.loc 1 637 0
	str	x0, [x19,336]
.L509:
.LBE3114:
.LBE3118:
.LBE3123:
.LBE3128:
	.loc 1 983 0
	ldr	x2, [x21,14944]
	mov	x0, x21
	add	x1, x29, 88
	bl	blk_queue_split
.LVL746:
	.loc 1 988 0
	ldr	x1, [x29,88]
.LVL747:
	mov	x2, 0
	ldr	x0, [x21,80]
	ldr	w1, [x1,20]
.LVL748:
	bl	wbt_wait
.LVL749:
	uxtb	w26, w0
.LVL750:
	.loc 1 990 0
	ldr	x0, [x29,88]
	mov	w1, 3
	bl	hisi_blk_latency_bio_check
.LVL751:
	.loc 1 992 0
	ldr	x1, [x29,88]
	mov	x0, x21
	add	x2, x29, 96
	bl	blk_mq_map_request
.LVL752:
	mov	x20, x0
.LVL753:
	.loc 1 993 0
	cbz	x0, .L589
	.loc 1 999 0
	cbnz	w26, .L590
.L519:
	.loc 1 1002 0
	ldr	x0, [x29,96]
.LBB3129:
.LBB3130:
	.file 20 "/mnt/disk/jenkins/ci/workspace/chipset_GLK_patch/opensource/component_code/vendor/huawei/extra/build/build_script/kirin_kernel_release/kernel/include/linux/blk_types.h"
	.loc 20 373 0
	ldr	w1, [x20,560]
	ldr	x3, [x29,88]
	ldr	w23, [x0,268]
	orr	w23, w1, w23, lsl 16
.LBE3130:
.LBE3129:
	.loc 1 1004 0
	cbnz	w25, .L521
	.loc 1 1004 0 is_stmt 0 discriminator 1
	ldr	w1, [x3,20]
	tbnz	x1, 9, .L521
	.loc 1 1013 0 is_stmt 1
	cbz	w22, .L524
.LBB3131:
.LBB3132:
.LBB3133:
	.loc 1 807 0
	mov	x1, x3
	mov	x0, x20
	bl	init_request_from_bio
.LVL754:
	.loc 1 808 0
	mov	x0, x20
	mov	w1, 1
	bl	blk_account_io_start
.LVL755:
.LBE3133:
.LBE3132:
	.loc 1 1021 0
	str	x20, [x29,112]
	ldr	x1, [x20,88]
	.loc 1 1022 0 discriminator 1
	ldr	x0, [x29,96]
.LBB3134:
.LBB3135:
.LBB3136:
.LBB3137:
	.loc 1 645 0
	tbz	x1, 3, .L525
	.loc 1 646 0
	tbnz	x1, 11, .L591
.LBB3138:
.LBB3139:
	.loc 8 113 0
	add	x3, x19, 12
#APP
// 113 "/mnt/disk/jenkins/ci/workspace/chipset_GLK_patch/opensource/component_code/vendor/huawei/extra/build/build_script/kirin_kernel_release/kernel/arch/arm64/include/asm/atomic_ll_sc.h" 1
	// atomic_add_return
	prfm	pstl1strm, [x3]
1:	ldxr	w2, [x3]
	add	w2, w2, 1
	stlxr	w1, w2, [x3]
	cbnz	w1, 1b
	dmb ish
// 0 "" 2
.LVL756:
#NO_APP
.LBE3139:
.LBE3138:
	.loc 1 655 0
	ldr	w1, [x19,328]
.LVL757:
	cmp	w2, w1
	bgt	.L582
.LVL758:
.L527:
.LBE3137:
.LBE3136:
	.loc 1 735 0
	ldr	x2, [x21,280]
.LVL759:
	add	x1, x29, 112
.LVL760:
	ldr	x2, [x2]
	blr	x2
.LVL761:
	mov	w22, w0
.LVL762:
	.loc 1 737 0
	mov	w1, 6
	mov	x0, x20
	bl	hisi_blk_latency_req_check
.LVL763:
	.loc 1 739 0
	cbnz	w22, .L533
.LVL764:
.L532:
.LBE3135:
.LBE3134:
	.loc 1 1023 0
	ldr	x0, [x29,104]
.LVL765:
.LBB3169:
.LBB3170:
	.loc 6 89 0
	ldr	x1, [x0,304]
.LVL766:
	ldr	x1, [x1,13024]
	cbz	x1, .L537
	.loc 6 89 0 is_stmt 0 discriminator 1
	ldr	x1, [x1,80]
	cbz	x1, .L537
	.loc 6 90 0 is_stmt 1
	blr	x1
.LVL767:
	mov	w2, w0
.LVL768:
	.loc 6 91 0
	cbnz	w0, .L592
.LVL769:
.L539:
.LBE3170:
.LBE3169:
	.loc 1 1024 0
	cbnz	w22, .L593
.LVL770:
.L518:
.LBE3131:
	.loc 1 1053 0
	ldr	x2, [x29,136]
.LVL771:
	mov	w0, w23
.LVL772:
	ldr	x1, [x24,#:lo12:__stack_chk_guard]
.LVL773:
	cmp	x2, x1
	bne	.L594
	ldp	x19, x20, [sp,16]
	.cfi_remember_state
	.cfi_restore 20
	.cfi_restore 19
.LVL774:
	ldp	x21, x22, [sp,32]
	.cfi_restore 22
	.cfi_restore 21
.LVL775:
	ldp	x23, x24, [sp,48]
	.cfi_restore 24
	.cfi_restore 23
	ldp	x25, x26, [sp,64]
	.cfi_restore 26
	.cfi_restore 25
.LVL776:
	ldp	x29, x30, [sp], 144
	.cfi_restore 30
	.cfi_restore 29
	.cfi_def_cfa 31, 0
	ret
.LVL777:
.L512:
	.cfi_restore_state
.LBB3207:
.LBB3124:
.LBB3119:
.LBB3115:
	.loc 1 631 0
	bl	ktime_get
.LVL778:
.LBB3096:
.LBB3097:
.LBB3098:
	.loc 17 233 0
	ldr	x1, [x19,336]
	add	x1, x1, 9998336
	add	x1, x1, 1664
.LBE3098:
.LBE3097:
.LBB3099:
.LBB3100:
.LBB3101:
	.loc 17 144 0
	cmp	x1, x0
	ble	.L516
.LBE3101:
.LBE3100:
.LBE3099:
.LBE3096:
.LBB3102:
.LBB3103:
.LBB3104:
	.loc 2 275 0
	mov	w1, 2
	str	w1, [x19,424]
.L516:
.LBE3104:
.LBE3103:
.LBE3102:
	.loc 1 634 0
	str	x0, [x19,336]
.LBE3115:
.LBE3119:
	.loc 1 799 0
	mov	w22, 1
	b	.L509
.LVL779:
.L592:
.LBE3124:
.LBE3207:
.LBB3208:
.LBB3181:
.LBB3179:
	.loc 6 92 0
	cmn	w0, #1
	bne	.L595
.L537:
	.loc 6 93 0
.LBB3171:
.LBB3172:
.LBB3173:
.LBB3174:
.LBB3175:
	.loc 4 20 0
#APP
// 20 "/mnt/disk/jenkins/ci/workspace/chipset_GLK_patch/opensource/component_code/vendor/huawei/extra/build/build_script/kirin_kernel_release/kernel/arch/arm64/include/asm/current.h" 1
	mrs x1, sp_el0
// 0 "" 2
.LVL780:
#NO_APP
.LBE3175:
.LBE3174:
.LBE3173:
	.loc 5 68 0
	ldr	w0, [x1,24]
.LVL781:
	sub	w0, w0, #1
	str	w0, [x1,24]
	cbnz	w0, .L539
.LBB3176:
.LBB3177:
.LBB3178:
	.loc 7 105 0
	ldr	x0, [x1]
.LBE3178:
.LBE3177:
.LBE3176:
	.loc 5 68 0 discriminator 1
	tbz	x0, 1, .L539
.LBE3172:
.LBE3171:
	.loc 6 93 0 discriminator 3
	bl	preempt_schedule
.LVL782:
	b	.L539
.LVL783:
.L511:
.LBE3179:
.LBE3181:
.LBE3208:
.LBB3209:
.LBB3125:
.LBB3120:
.LBB3116:
	.loc 1 622 0
	bl	ktime_get
.LVL784:
	mov	x20, x0
.LBB3105:
.LBB3106:
.LBB3107:
	.loc 17 233 0
	ldr	x0, [x19,336]
	add	x0, x0, 9998336
	add	x0, x0, 1664
.LBE3107:
.LBE3106:
.LBB3108:
.LBB3109:
.LBB3110:
	.loc 17 144 0
	cmp	x0, x20
	bgt	.L513
.L515:
.LBE3110:
.LBE3109:
.LBE3108:
.LBE3105:
	.loc 1 628 0
	str	x20, [x19,336]
.LBE3116:
.LBE3120:
	.loc 1 799 0
	mov	w22, 1
	b	.L509
.LVL785:
.L521:
.LBE3125:
.LBE3209:
.LBB3210:
.LBB3211:
	.loc 1 807 0
	mov	x1, x3
	mov	x0, x20
	bl	init_request_from_bio
.LVL786:
	.loc 1 808 0
	mov	x0, x20
	mov	w1, 1
	bl	blk_account_io_start
.LVL787:
.LBE3211:
.LBE3210:
	.loc 1 1009 0
	mov	x0, x20
	bl	blk_insert_flush
.LVL788:
.L523:
	.loc 1 1045 0
	ldr	x0, [x29,96]
	eor	w1, w22, 1
	bl	blk_mq_run_hw_queue
.LVL789:
.L546:
	.loc 1 1047 0
	ldr	x0, [x29,104]
.LBB3212:
.LBB3213:
	.loc 6 89 0
	ldr	x1, [x0,304]
	ldr	x1, [x1,13024]
	cbz	x1, .L549
	.loc 6 89 0 is_stmt 0 discriminator 1
	ldr	x1, [x1,80]
	cbz	x1, .L549
	.loc 6 90 0 is_stmt 1
	blr	x1
.LVL790:
	mov	w2, w0
.LVL791:
	.loc 6 91 0
	cbz	w0, .L518
	.loc 6 92 0
	cmn	w0, #1
	bne	.L596
.L549:
	.loc 6 93 0
.LBB3214:
.LBB3215:
.LBB3216:
.LBB3217:
.LBB3218:
	.loc 4 20 0
#APP
// 20 "/mnt/disk/jenkins/ci/workspace/chipset_GLK_patch/opensource/component_code/vendor/huawei/extra/build/build_script/kirin_kernel_release/kernel/arch/arm64/include/asm/current.h" 1
	mrs x1, sp_el0
// 0 "" 2
.LVL792:
#NO_APP
.LBE3218:
.LBE3217:
.LBE3216:
	.loc 5 68 0
	ldr	w0, [x1,24]
	sub	w0, w0, #1
	str	w0, [x1,24]
	cbnz	w0, .L518
.LBB3219:
.LBB3220:
.LBB3221:
	.loc 7 105 0
	ldr	x0, [x1]
.LBE3221:
.LBE3220:
.LBE3219:
	.loc 5 68 0 discriminator 1
	tbz	x0, 1, .L518
.LBE3215:
.LBE3214:
	.loc 6 93 0 discriminator 3
	bl	preempt_schedule
.LVL793:
	b	.L518
.LVL794:
.L589:
.LBE3213:
.LBE3212:
	.loc 1 996 0
	mov	w23, -1
	.loc 1 994 0
	cbz	w26, .L518
	.loc 1 995 0
	ldr	x0, [x21,80]
.LVL795:
	bl	__wbt_done
.LVL796:
	b	.L518
.LVL797:
.L588:
.LBB3223:
.LBB3126:
	.loc 1 795 0 discriminator 1
	mov	w1, 280
.LVL798:
	tst	w0, w1
	bne	.L508
	b	.L509
.L513:
.LBB3121:
.LBB3117:
	.loc 1 626 0
	adrp	x1, jiffies
.LBB3111:
.LBB3112:
.LBB3113:
	.loc 2 275 0
	mov	w0, 1
	str	w0, [x19,424]
.LBE3113:
.LBE3112:
.LBE3111:
	.loc 1 626 0 discriminator 1
	add	x0, x19, 376
	.loc 1 624 0
	str	x20, [x19,344]
	.loc 1 626 0
	ldr	x1, [x1,#:lo12:jiffies]
	.loc 1 626 0 is_stmt 0 discriminator 1
	add	x1, x1, 3
	bl	mod_timer
.LVL799:
	b	.L515
.LVL800:
.L590:
.LBE3117:
.LBE3121:
.LBE3126:
.LBE3223:
.LBB3224:
.LBB3225:
	.file 21 "/mnt/disk/jenkins/ci/workspace/chipset_GLK_patch/opensource/component_code/vendor/huawei/extra/build/build_script/kirin_kernel_release/kernel/include/linux/wbt.h"
	.loc 21 29 0 is_stmt 1
	ldr	x0, [x0,512]
.LVL801:
	orr	x0, x0, -9223372036854775808
	str	x0, [x20,512]
	b	.L519
.L524:
.LBE3225:
.LBE3224:
	.loc 1 1043 0
	ldr	x1, [x29,104]
	mov	x2, x20
	bl	ufs_mq_merge_queue_io
.LVL802:
	uxtb	w0, w0
	cbnz	w0, .L546
	b	.L523
.LVL803:
.L593:
.LBB3226:
	.loc 1 1026 0
	cmp	w22, 2
	beq	.L597
	.loc 1 1031 0
	ldr	x0, [x29,112]
	bl	__blk_mq_requeue_request
.LVL804:
	.loc 1 1036 0
	ldr	x20, [x29,112]
.LVL805:
.LBB3182:
.LBB3183:
	.loc 1 785 0
	ldr	x19, [x21,13016]
.LVL806:
	.loc 1 786 0
	mov	w1, 4
	mov	x0, x20
.LBB3184:
.LBB3185:
	.loc 9 291 0
	add	x22, x19, 280
.LVL807:
.LBE3185:
.LBE3184:
	.loc 1 786 0
	bl	hisi_blk_latency_req_check
.LVL808:
	.loc 1 787 0 discriminator 1
	mov	x0, x22
	bl	_raw_spin_lock_irqsave
.LVL809:
	mov	x1, x0
.LVL810:
	.loc 1 788 0
	ldr	x2, [x20,88]
	.loc 1 788 0 is_stmt 0 discriminator 1
	add	x3, x19, 232
	add	x19, x19, 248
.LVL811:
.LBB3186:
.LBB3187:
	.loc 9 362 0 is_stmt 1
	mov	x0, x22
.LBE3187:
.LBE3186:
	.loc 1 788 0
	and	x2, x2, 2048
	.loc 1 788 0 is_stmt 0 discriminator 1
	cmp	x2, xzr
	csel	x19, x19, x3, eq
.LBB3189:
.LBB3190:
	.loc 3 92 0 is_stmt 1
	ldr	x2, [x19,8]
.LBB3191:
.LBB3192:
	.loc 3 62 0
	str	x20, [x19,8]
	.loc 3 64 0
	str	x2, [x20,8]
	.loc 3 63 0
	str	x19, [x20]
.LBB3193:
.LBB3194:
.LBB3195:
	.loc 2 276 0
	str	x20, [x2]
.LBE3195:
.LBE3194:
.LBE3193:
.LBE3192:
.LBE3191:
.LBE3190:
.LBE3189:
.LBB3196:
.LBB3188:
	.loc 9 362 0
	bl	_raw_spin_unlock_irqrestore
.LVL812:
.LBE3188:
.LBE3196:
.LBB3197:
.LBB3198:
.LBB3199:
.LBB3200:
.LBB3201:
	.loc 10 492 0
	adrp	x1, .LANCHOR0
.LBE3201:
.LBE3200:
	.loc 1 764 0
	ldr	x2, [x21,13016]
.LBB3203:
.LBB3202:
	.loc 10 492 0
	mov	x3, 0
	mov	w0, 8
	add	x2, x2, 24
	ldr	x1, [x1,#:lo12:.LANCHOR0]
	bl	queue_delayed_work_on
.LVL813:
	b	.L518
.LVL814:
.L525:
.LBE3202:
.LBE3203:
.LBE3199:
.LBE3198:
.LBE3197:
.LBE3183:
.LBE3182:
.LBB3204:
.LBB3167:
.LBB3146:
.LBB3144:
.LBB3140:
.LBB3141:
	.loc 8 113 0
	add	x3, x19, 16
#APP
// 113 "/mnt/disk/jenkins/ci/workspace/chipset_GLK_patch/opensource/component_code/vendor/huawei/extra/build/build_script/kirin_kernel_release/kernel/arch/arm64/include/asm/atomic_ll_sc.h" 1
	// atomic_add_return
	prfm	pstl1strm, [x3]
1:	ldxr	w2, [x3]
	add	w2, w2, 1
	stlxr	w1, w2, [x3]
	cbnz	w1, 1b
	dmb ish
// 0 "" 2
.LVL815:
#NO_APP
.LBE3141:
.LBE3140:
	.loc 1 670 0
	ldr	w1, [x19,332]
.LVL816:
	cmp	w2, w1
	ble	.L527
.LVL817:
.L582:
	.loc 1 675 0
	mov	w0, 2
	mov	w22, 1
.LVL818:
	str	w0, [x20,276]
.L529:
	ldr	x0, [x20,88]
.LBE3144:
.LBE3146:
.LBB3147:
.LBB3148:
	.loc 1 697 0
	tbz	x0, 3, .L530
	.loc 1 698 0
	tbnz	x0, 11, .L598
.LBB3149:
.LBB3150:
	.loc 8 114 0
	add	x2, x19, 12
.LVL819:
#APP
// 114 "/mnt/disk/jenkins/ci/workspace/chipset_GLK_patch/opensource/component_code/vendor/huawei/extra/build/build_script/kirin_kernel_release/kernel/arch/arm64/include/asm/atomic_ll_sc.h" 1
	// atomic_sub
	prfm	pstl1strm, [x2]
1:	ldxr	w0, [x2]
	sub	w0, w0, 1
	stxr	w1, w0, [x2]
	cbnz	w1, 1b
// 0 "" 2
.LVL820:
#NO_APP
	b	.L532
.LVL821:
.L533:
.LBE3150:
.LBE3149:
.LBE3148:
.LBE3147:
	.loc 1 742 0
	mov	w0, 1
	str	w0, [x20,276]
.LBB3156:
.LBB3157:
.LBB3158:
	.loc 2 247 0 discriminator 4
	ldr	w2, [x19,8]
.LBE3158:
.LBE3157:
.LBE3156:
.LBB3159:
.LBB3160:
.LBB3161:
	ldr	w0, [x19,12]
.LBE3161:
.LBE3160:
.LBE3159:
.LBB3162:
.LBB3163:
.LBB3164:
	ldr	w1, [x19,16]
.LBE3164:
.LBE3163:
.LBE3162:
	.loc 1 744 0 discriminator 11
	add	w0, w2, w0
	.loc 1 744 0 is_stmt 0 discriminator 17
	add	w0, w0, w1
	cmp	w0, 8
	bgt	.L529
	.loc 1 745 0 is_stmt 1
	mov	w0, 3
	str	w0, [x20,276]
	b	.L529
.LVL822:
.L591:
.LBB3165:
.LBB3145:
.LBB3142:
.LBB3143:
	.loc 8 113 0
	add	x3, x19, 8
#APP
// 113 "/mnt/disk/jenkins/ci/workspace/chipset_GLK_patch/opensource/component_code/vendor/huawei/extra/build/build_script/kirin_kernel_release/kernel/arch/arm64/include/asm/atomic_ll_sc.h" 1
	// atomic_add
	prfm	pstl1strm, [x3]
1:	ldxr	w1, [x3]
	add	w1, w1, 1
	stxr	w2, w1, [x3]
	cbnz	w2, 1b
// 0 "" 2
.LVL823:
#NO_APP
	b	.L527
.LVL824:
.L595:
.LBE3143:
.LBE3142:
.LBE3145:
.LBE3165:
.LBE3167:
.LBE3204:
.LBB3205:
.LBB3180:
	.loc 6 95 0
	adrp	x0, .LC8
.LVL825:
	adrp	x1, .LANCHOR1
	add	x1, x1, :lo12:.LANCHOR1
	add	x0, x0, :lo12:.LC8
	bl	printk
.LVL826:
	b	.L539
.LVL827:
.L597:
.LBE3180:
.LBE3205:
	.loc 1 1027 0
	ldr	x2, [x29,112]
.LVL828:
	mov	w3, -5
	.loc 1 1028 0
	mov	w1, w3
.LVL829:
	mov	x0, x2
.LVL830:
	.loc 1 1027 0
	str	w3, [x2,564]
	.loc 1 1028 0
	bl	blk_mq_end_request
.LVL831:
	.loc 1 1029 0
	b	.L518
.LVL832:
.L596:
.LBE3226:
.LBB3227:
.LBB3222:
	.loc 6 95 0
	adrp	x0, .LC8
.LVL833:
	adrp	x1, .LANCHOR1
	add	x1, x1, :lo12:.LANCHOR1
	add	x0, x0, :lo12:.LC8
	bl	printk
.LVL834:
	b	.L518
.LVL835:
.L530:
.LBE3222:
.LBE3227:
.LBB3228:
.LBB3206:
.LBB3168:
.LBB3166:
.LBB3155:
.LBB3151:
.LBB3152:
	.loc 8 114 0
	add	x2, x19, 16
.LVL836:
#APP
// 114 "/mnt/disk/jenkins/ci/workspace/chipset_GLK_patch/opensource/component_code/vendor/huawei/extra/build/build_script/kirin_kernel_release/kernel/arch/arm64/include/asm/atomic_ll_sc.h" 1
	// atomic_sub
	prfm	pstl1strm, [x2]
1:	ldxr	w0, [x2]
	sub	w0, w0, 1
	stxr	w1, w0, [x2]
	cbnz	w1, 1b
// 0 "" 2
.LVL837:
#NO_APP
	b	.L532
.LVL838:
.L598:
.LBE3152:
.LBE3151:
.LBB3153:
.LBB3154:
	add	x2, x19, 8
.LVL839:
#APP
// 114 "/mnt/disk/jenkins/ci/workspace/chipset_GLK_patch/opensource/component_code/vendor/huawei/extra/build/build_script/kirin_kernel_release/kernel/arch/arm64/include/asm/atomic_ll_sc.h" 1
	// atomic_sub
	prfm	pstl1strm, [x2]
1:	ldxr	w0, [x2]
	sub	w0, w0, 1
	stxr	w1, w0, [x2]
	cbnz	w1, 1b
// 0 "" 2
.LVL840:
#NO_APP
	b	.L532
.LVL841:
.L594:
.LBE3154:
.LBE3153:
.LBE3155:
.LBE3166:
.LBE3168:
.LBE3206:
.LBE3228:
	.loc 1 1053 0
	bl	__stack_chk_fail
.LVL842:
	.cfi_endproc
.LFE3178:
	.size	ufs_mq_make_request, .-ufs_mq_make_request
	.align	2
	.global	ufs_mq_flush_plug_list
	.type	ufs_mq_flush_plug_list, %function
ufs_mq_flush_plug_list:
.LFB3175:
	.loc 1 898 0
	.cfi_startproc
.LVL843:
	stp	x29, x30, [sp, -160]!
	.cfi_def_cfa_offset 160
	.cfi_offset 29, -160
	.cfi_offset 30, -152
	.loc 1 910 0
	add	x1, x0, 48
.LVL844:
	.loc 1 903 0
	mov	w3, 1
	.loc 1 898 0
	add	x29, sp, 0
	.cfi_def_cfa_register 29
	stp	x27, x28, [sp,80]
	.cfi_offset 27, -80
	.cfi_offset 28, -72
	adrp	x28, __stack_chk_guard
	stp	x23, x24, [sp,48]
	stp	x19, x20, [sp,16]
	ldr	x2, [x28,#:lo12:__stack_chk_guard]
	.cfi_offset 23, -112
	.cfi_offset 24, -104
	.cfi_offset 19, -144
	.cfi_offset 20, -136
	.loc 1 908 0
	add	x23, x29, 112
	.loc 1 898 0
	stp	x21, x22, [sp,32]
	stp	x25, x26, [sp,64]
	.cfi_offset 21, -128
	.cfi_offset 22, -120
	.cfi_offset 25, -96
	.cfi_offset 26, -88
	.loc 1 898 0
	str	x2, [x29,152]
	.loc 1 903 0
	str	xzr, [x29,128]
.LBB3229:
.LBB3230:
.LBB3231:
.LBB3232:
.LBB3233:
.LBB3234:
	.loc 2 247 0 discriminator 5
	ldr	x2, [x0,48]
.LBE3234:
.LBE3233:
.LBE3232:
.LBE3231:
.LBE3230:
.LBE3229:
	.loc 1 903 0
	str	xzr, [x29,136]
	strb	w3, [x29,144]
.LBB3245:
.LBB3242:
	.loc 3 335 0
	cmp	x1, x2
.LBE3242:
.LBE3245:
	.loc 1 908 0
	str	x23, [x29,112]
	str	x23, [x29,120]
.LBB3246:
.LBB3243:
	.loc 3 335 0
	beq	.L623
.LBB3235:
.LBB3236:
	.loc 3 291 0
	ldr	x3, [x0,48]
.LVL845:
	.loc 3 292 0
	ldr	x2, [x0,56]
.LVL846:
	.loc 3 295 0
	str	x3, [x29,112]
	.loc 3 294 0
	str	x23, [x3,8]
	.loc 3 297 0
	str	x23, [x2]
	.loc 3 298 0
	str	x2, [x29,120]
	ldr	x19, [x29,112]
.LBE3236:
.LBE3235:
.LBB3237:
.LBB3238:
.LBB3239:
.LBB3240:
.LBB3241:
	.loc 2 276 0
	str	x1, [x0,48]
.LBE3241:
.LBE3240:
.LBE3239:
	.loc 3 28 0
	str	x1, [x0,56]
	ldr	x0, [x19,8]
.LVL847:
	ldr	x21, [x19]
.L600:
.LBE3238:
.LBE3237:
.LBE3243:
.LBE3246:
.LBB3247:
.LBB3248:
.LBB3249:
	.loc 6 95 0
	adrp	x27, .LC8
	adrp	x26, .LANCHOR1
	add	x1, x26, :lo12:.LANCHOR1
	adrp	x25, __per_cpu_offset
	add	x27, x27, :lo12:.LC8
	str	x1, [x29,104]
.LBE3249:
.LBE3248:
.LBB3261:
.LBB3262:
.LBB3263:
.LBB3264:
	.loc 6 82 0
	adrp	x24, cpu_number
	add	x24, x24, :lo12:cpu_number
.LVL848:
.LBE3264:
.LBB3267:
.LBB3268:
.LBB3269:
.LBB3270:
.LBB3271:
	.loc 4 20 0
#APP
// 20 "/mnt/disk/jenkins/ci/workspace/chipset_GLK_patch/opensource/component_code/vendor/huawei/extra/build/build_script/kirin_kernel_release/kernel/arch/arm64/include/asm/current.h" 1
	mrs x22, sp_el0
// 0 "" 2
.LVL849:
#NO_APP
.LBE3271:
.LBE3270:
.LBE3269:
.LBE3268:
.LBE3267:
.LBB3273:
	.loc 6 82 0
.LVL850:
.L621:
.LBE3273:
.LBE3263:
.LBE3262:
.LBE3261:
	.loc 1 914 0
	ldr	x26, [x19,64]
	.loc 1 915 0
	ldr	x20, [x26,13016]
.LBB3280:
.LBB3281:
.LBB3282:
.LBB3283:
	.loc 3 104 0
	str	x0, [x21,8]
.LBB3284:
.LBB3285:
.LBB3286:
	.loc 2 276 0
	str	x21, [x0]
.LBE3286:
.LBE3285:
.LBE3284:
.LBE3283:
.LBE3282:
.LBE3281:
.LBB3287:
.LBB3288:
.LBB3289:
.LBB3290:
.LBB3291:
	str	x19, [x19]
.LBE3291:
.LBE3290:
.LBE3289:
	.loc 3 28 0
	str	x19, [x19,8]
.LBE3288:
.LBE3287:
.LBE3280:
	.loc 1 917 0
	str	x19, [x29,128]
.LBB3292:
.LBB3279:
.LBB3276:
.LBB3274:
.LBB3272:
	.loc 5 53 0
	ldr	w0, [x22,24]
	add	w0, w0, 1
	str	w0, [x22,24]
.LBE3272:
.LBE3274:
	.loc 6 82 0
.LBB3275:
.LBB3265:
.LBB3266:
	.loc 14 34 0
#APP
// 34 "/mnt/disk/jenkins/ci/workspace/chipset_GLK_patch/opensource/component_code/vendor/huawei/extra/build/build_script/kirin_kernel_release/kernel/arch/arm64/include/asm/percpu.h" 1
	mrs x0, tpidr_el1
// 0 "" 2
.LVL851:
#NO_APP
.LBE3266:
.LBE3265:
.LBE3275:
.LBE3276:
.LBB3277:
.LBB3278:
	.loc 6 71 0
	ldr	w1, [x0,x24]
.LVL852:
	add	x0, x25, :lo12:__per_cpu_offset
.LVL853:
	ldr	x2, [x19,88]
.LVL854:
	ldr	x1, [x0,x1,lsl 3]
	ldr	x0, [x26,296]
.LVL855:
	add	x0, x0, x1
.LVL856:
.LBE3278:
.LBE3277:
.LBE3279:
.LBE3292:
	.loc 1 918 0
	str	x0, [x19,72]
.LBB3293:
.LBB3294:
	.loc 6 53 0
	ldr	x1, [x26,288]
.LBE3294:
.LBE3293:
	.loc 1 919 0
	ldr	w4, [x0,64]
.LBB3296:
.LBB3295:
	.loc 6 53 0
	ldr	x0, [x26,312]
	ldr	w1, [x1,w4,sxtw 2]
	ldr	x0, [x0,w1,uxtw 3]
.LBE3295:
.LBE3296:
.LBB3297:
.LBB3298:
.LBB3299:
.LBB3300:
	.loc 1 645 0
	tbz	x2, 3, .L601
	.loc 1 646 0
	tbnz	x2, 11, .L642
.LBB3301:
.LBB3302:
	.loc 8 113 0
	add	x3, x20, 12
.LVL857:
#APP
// 113 "/mnt/disk/jenkins/ci/workspace/chipset_GLK_patch/opensource/component_code/vendor/huawei/extra/build/build_script/kirin_kernel_release/kernel/arch/arm64/include/asm/atomic_ll_sc.h" 1
	// atomic_add_return
	prfm	pstl1strm, [x3]
1:	ldxr	w2, [x3]
	add	w2, w2, 1
	stlxr	w1, w2, [x3]
	cbnz	w1, 1b
	dmb ish
// 0 "" 2
.LVL858:
#NO_APP
.LBE3302:
.LBE3301:
	.loc 1 655 0
	ldr	w1, [x20,328]
.LVL859:
	cmp	w2, w1
	bgt	.L638
.LVL860:
.L603:
.LBE3300:
.LBE3299:
	.loc 1 735 0
	ldr	x2, [x26,280]
.LVL861:
	add	x1, x29, 128
.LVL862:
	ldr	x2, [x2]
	blr	x2
.LVL863:
	mov	w21, w0
.LVL864:
	.loc 1 737 0
	mov	w1, 6
	mov	x0, x19
	bl	hisi_blk_latency_req_check
.LVL865:
	.loc 1 739 0
	cbnz	w21, .L643
.LVL866:
.L608:
.LBE3298:
.LBE3297:
	.loc 1 921 0
	ldr	x0, [x19,72]
.LVL867:
.LBB3334:
.LBB3258:
	.loc 6 89 0
	ldr	x1, [x0,304]
.LVL868:
	ldr	x1, [x1,13024]
	cbz	x1, .L613
	.loc 6 89 0 is_stmt 0 discriminator 1
	ldr	x1, [x1,80]
	cbz	x1, .L613
	.loc 6 90 0 is_stmt 1
	blr	x1
.LVL869:
	mov	w2, w0
.LVL870:
	.loc 6 91 0
	cbz	w0, .L615
	.loc 6 92 0
	cmn	w0, #1
	bne	.L644
.L613:
	.loc 6 93 0
.LBB3250:
.LBB3251:
.LBB3252:
.LBB3253:
.LBB3254:
	.loc 4 20 0
#APP
// 20 "/mnt/disk/jenkins/ci/workspace/chipset_GLK_patch/opensource/component_code/vendor/huawei/extra/build/build_script/kirin_kernel_release/kernel/arch/arm64/include/asm/current.h" 1
	mrs x1, sp_el0
// 0 "" 2
.LVL871:
#NO_APP
.LBE3254:
.LBE3253:
.LBE3252:
	.loc 5 68 0
	ldr	w0, [x1,24]
	sub	w0, w0, #1
	str	w0, [x1,24]
	cbnz	w0, .L615
.LBB3255:
.LBB3256:
.LBB3257:
	.loc 7 105 0
	ldr	x0, [x1]
.LBE3257:
.LBE3256:
.LBE3255:
	.loc 5 68 0 discriminator 1
	tbnz	x0, 1, .L645
.L615:
.LBE3251:
.LBE3250:
.LBE3258:
.LBE3334:
	.loc 1 922 0
	cbnz	w21, .L646
.L618:
.LBE3247:
.LBB3345:
.LBB3346:
.LBB3347:
.LBB3348:
	.loc 2 247 0 discriminator 5
	ldr	x0, [x29,112]
.LBE3348:
.LBE3347:
.LBE3346:
.LBE3345:
	.loc 1 932 0
	cmp	x23, x0
	beq	.L599
.L648:
	ldr	x19, [x29,112]
	ldr	x21, [x19]
.LVL872:
	ldr	x0, [x19,8]
	b	.L621
.LVL873:
.L645:
.LBB3352:
.LBB3335:
.LBB3259:
	.loc 6 93 0 discriminator 3
	bl	preempt_schedule
.LVL874:
.LBE3259:
.LBE3335:
	.loc 1 922 0
	cbz	w21, .L618
.LVL875:
.L646:
	.loc 1 923 0
	cmp	w21, 2
	beq	.L647
	.loc 1 927 0
	mov	x0, x19
	bl	__blk_mq_requeue_request
.LVL876:
	.loc 1 928 0
	ldr	x1, [x26,13016]
	mov	x0, x19
	bl	ufs_mq_insert_sync_list.isra.26
.LVL877:
.LBB3336:
.LBB3337:
.LBB3338:
.LBB3339:
	.loc 10 492 0
	adrp	x1, .LANCHOR0
.LBE3339:
.LBE3338:
	.loc 1 764 0
	ldr	x2, [x26,13016]
.LBB3341:
.LBB3340:
	.loc 10 492 0
	mov	w0, 8
	mov	x3, 0
	add	x2, x2, 24
	ldr	x1, [x1,#:lo12:.LANCHOR0]
	bl	queue_delayed_work_on
.LVL878:
.LBE3340:
.LBE3341:
.LBE3337:
.LBE3336:
.LBE3352:
.LBB3353:
.LBB3351:
.LBB3350:
.LBB3349:
	.loc 2 247 0 discriminator 5
	ldr	x0, [x29,112]
.LBE3349:
.LBE3350:
.LBE3351:
.LBE3353:
	.loc 1 932 0
	cmp	x23, x0
	bne	.L648
.LVL879:
.L599:
	.loc 1 933 0
	ldr	x1, [x29,152]
.LVL880:
	ldr	x0, [x28,#:lo12:__stack_chk_guard]
	cmp	x1, x0
	bne	.L649
	ldp	x19, x20, [sp,16]
	.cfi_remember_state
	.cfi_restore 20
	.cfi_restore 19
.LVL881:
	ldp	x21, x22, [sp,32]
	.cfi_restore 22
	.cfi_restore 21
.LVL882:
	ldp	x23, x24, [sp,48]
	.cfi_restore 24
	.cfi_restore 23
.LVL883:
	ldp	x25, x26, [sp,64]
	.cfi_restore 26
	.cfi_restore 25
.LVL884:
	ldp	x27, x28, [sp,80]
	.cfi_restore 28
	.cfi_restore 27
	ldp	x29, x30, [sp], 160
	.cfi_restore 30
	.cfi_restore 29
	.cfi_def_cfa 31, 0
	ret
.LVL885:
.L601:
	.cfi_restore_state
.LBB3354:
.LBB3342:
.LBB3332:
.LBB3309:
.LBB3307:
.LBB3303:
.LBB3304:
	.loc 8 113 0
	add	x3, x20, 16
.LVL886:
#APP
// 113 "/mnt/disk/jenkins/ci/workspace/chipset_GLK_patch/opensource/component_code/vendor/huawei/extra/build/build_script/kirin_kernel_release/kernel/arch/arm64/include/asm/atomic_ll_sc.h" 1
	// atomic_add_return
	prfm	pstl1strm, [x3]
1:	ldxr	w2, [x3]
	add	w2, w2, 1
	stlxr	w1, w2, [x3]
	cbnz	w1, 1b
	dmb ish
// 0 "" 2
.LVL887:
#NO_APP
.LBE3304:
.LBE3303:
	.loc 1 670 0
	ldr	w1, [x20,332]
.LVL888:
	cmp	w2, w1
	ble	.L603
.LVL889:
.L638:
	.loc 1 675 0
	mov	w0, 2
	mov	w21, 1
.LVL890:
	str	w0, [x19,276]
.L605:
	ldr	x0, [x19,88]
.LBE3307:
.LBE3309:
.LBB3310:
.LBB3311:
	.loc 1 697 0
	tbz	x0, 3, .L606
.L651:
	.loc 1 698 0
	tbnz	x0, 11, .L650
.LBB3312:
.LBB3313:
	.loc 8 114 0
	add	x2, x20, 12
.LVL891:
#APP
// 114 "/mnt/disk/jenkins/ci/workspace/chipset_GLK_patch/opensource/component_code/vendor/huawei/extra/build/build_script/kirin_kernel_release/kernel/arch/arm64/include/asm/atomic_ll_sc.h" 1
	// atomic_sub
	prfm	pstl1strm, [x2]
1:	ldxr	w0, [x2]
	sub	w0, w0, 1
	stxr	w1, w0, [x2]
	cbnz	w1, 1b
// 0 "" 2
.LVL892:
#NO_APP
	b	.L608
.LVL893:
.L643:
.LBE3313:
.LBE3312:
.LBE3311:
.LBE3310:
	.loc 1 742 0
	mov	w0, 1
	str	w0, [x19,276]
.LBB3320:
.LBB3321:
.LBB3322:
	.loc 2 247 0 discriminator 4
	ldr	w2, [x20,8]
.LBE3322:
.LBE3321:
.LBE3320:
.LBB3323:
.LBB3324:
.LBB3325:
	ldr	w0, [x20,12]
.LBE3325:
.LBE3324:
.LBE3323:
.LBB3326:
.LBB3327:
.LBB3328:
	ldr	w1, [x20,16]
.LBE3328:
.LBE3327:
.LBE3326:
	.loc 1 744 0 discriminator 11
	add	w0, w2, w0
	.loc 1 744 0 is_stmt 0 discriminator 17
	add	w0, w0, w1
	cmp	w0, 8
	bgt	.L605
	.loc 1 745 0 is_stmt 1
	mov	w0, 3
	str	w0, [x19,276]
	ldr	x0, [x19,88]
.LBB3329:
.LBB3318:
	.loc 1 697 0
	tbnz	x0, 3, .L651
.LVL894:
.L606:
.LBB3314:
.LBB3315:
	.loc 8 114 0
	add	x2, x20, 16
.LVL895:
#APP
// 114 "/mnt/disk/jenkins/ci/workspace/chipset_GLK_patch/opensource/component_code/vendor/huawei/extra/build/build_script/kirin_kernel_release/kernel/arch/arm64/include/asm/atomic_ll_sc.h" 1
	// atomic_sub
	prfm	pstl1strm, [x2]
1:	ldxr	w0, [x2]
	sub	w0, w0, 1
	stxr	w1, w0, [x2]
	cbnz	w1, 1b
// 0 "" 2
.LVL896:
#NO_APP
	b	.L608
.LVL897:
.L642:
.LBE3315:
.LBE3314:
.LBE3318:
.LBE3329:
.LBB3330:
.LBB3308:
.LBB3305:
.LBB3306:
	.loc 8 113 0
	add	x3, x20, 8
.LVL898:
#APP
// 113 "/mnt/disk/jenkins/ci/workspace/chipset_GLK_patch/opensource/component_code/vendor/huawei/extra/build/build_script/kirin_kernel_release/kernel/arch/arm64/include/asm/atomic_ll_sc.h" 1
	// atomic_add
	prfm	pstl1strm, [x3]
1:	ldxr	w1, [x3]
	add	w1, w1, 1
	stxr	w2, w1, [x3]
	cbnz	w2, 1b
// 0 "" 2
.LVL899:
#NO_APP
	b	.L603
.LVL900:
.L644:
.LBE3306:
.LBE3305:
.LBE3308:
.LBE3330:
.LBE3332:
.LBE3342:
.LBB3343:
.LBB3260:
	.loc 6 95 0
	ldr	x1, [x29,104]
	mov	x0, x27
.LVL901:
	bl	printk
.LVL902:
	b	.L615
.LVL903:
.L650:
.LBE3260:
.LBE3343:
.LBB3344:
.LBB3333:
.LBB3331:
.LBB3319:
.LBB3316:
.LBB3317:
	.loc 8 114 0
	add	x2, x20, 8
.LVL904:
#APP
// 114 "/mnt/disk/jenkins/ci/workspace/chipset_GLK_patch/opensource/component_code/vendor/huawei/extra/build/build_script/kirin_kernel_release/kernel/arch/arm64/include/asm/atomic_ll_sc.h" 1
	// atomic_sub
	prfm	pstl1strm, [x2]
1:	ldxr	w0, [x2]
	sub	w0, w0, 1
	stxr	w1, w0, [x2]
	cbnz	w1, 1b
// 0 "" 2
.LVL905:
#NO_APP
	b	.L608
.LVL906:
.L623:
.LBE3317:
.LBE3316:
.LBE3319:
.LBE3331:
.LBE3333:
.LBE3344:
.LBE3354:
.LBB3355:
.LBB3244:
	.loc 3 335 0
	mov	x21, x23
	mov	x0, x23
.LVL907:
	mov	x19, x23
	b	.L600
.LVL908:
.L647:
.LBE3244:
.LBE3355:
.LBB3356:
	.loc 1 924 0
	mov	w1, -5
.LVL909:
	.loc 1 925 0
	mov	x0, x19
	.loc 1 924 0
	str	w1, [x19,564]
	.loc 1 925 0
	bl	blk_mq_end_request
.LVL910:
	b	.L618
.LVL911:
.L649:
.LBE3356:
	.loc 1 933 0
	bl	__stack_chk_fail
.LVL912:
	.cfi_endproc
.LFE3175:
	.size	ufs_mq_flush_plug_list, .-ufs_mq_flush_plug_list
	.global	hisi_ufs_blk_tagset_ops
	.global	hisi_ufs_blk_queue_ops
	.global	hisi_ufs_mq
	.global	hisi_mq_sync_long_burst_duration_ms
	.section	__ksymtab_strings,"a",%progbits
	.type	__kstrtab_blk_mq_tagset_ufs_mq_iosched_enable, %object
	.size	__kstrtab_blk_mq_tagset_ufs_mq_iosched_enable, 36
__kstrtab_blk_mq_tagset_ufs_mq_iosched_enable:
	.string	"blk_mq_tagset_ufs_mq_iosched_enable"
	.section	.rodata
	.align	3
.LANCHOR1 = . + 0
	.type	__func__.38736, %object
	.size	__func__.38736, 15
__func__.38736:
	.string	"blk_mq_put_ctx"
	.zero	1
	.type	__func__.39225, %object
	.size	__func__.39225, 28
__func__.39225:
	.string	"ufs_tagset_init_bitmap_tags"
	.data
	.align	3
.LANCHOR2 = . + 0
	.type	hisi_io_guard_request_queue_list_lock, %object
	.size	hisi_io_guard_request_queue_list_lock, 24
hisi_io_guard_request_queue_list_lock:
	.hword	0
	.hword	0
	.word	-559067475
	.word	-1
	.zero	4
	.xword	-1
	.type	hisi_mq_sync_long_burst_duration_ms, %object
	.size	hisi_mq_sync_long_burst_duration_ms, 4
hisi_mq_sync_long_burst_duration_ms:
	.word	5000
	.zero	4
	.type	hisi_io_guard_request_queue_list, %object
	.size	hisi_io_guard_request_queue_list, 16
hisi_io_guard_request_queue_list:
	.xword	hisi_io_guard_request_queue_list
	.xword	hisi_io_guard_request_queue_list
	.type	hisi_ufs_blk_tagset_ops, %object
	.size	hisi_ufs_blk_tagset_ops, 32
hisi_ufs_blk_tagset_ops:
	.xword	ufs_tagset_init_tags
	.xword	ufs_tagset_free_tags
	.xword	ufs_tagset_all_tag_busy_iter
	.xword	hisi_ufs_blk_queue_ops
	.type	hisi_ufs_blk_queue_ops, %object
	.size	hisi_ufs_blk_queue_ops, 216
hisi_ufs_blk_queue_ops:
	.word	1
	.zero	4
	.xword	ufs_mq_iosched_init
	.xword	ufs_mq_iosched_deinit
	.xword	ufs_mq_req_alloc_prep
	.xword	ufs_mq_req_init
	.xword	ufs_mq_req_complete
	.xword	ufs_mq_req_deinit
	.xword	ufs_mq_req_insert
	.xword	ufs_mq_req_requeue
	.xword	ufs_mq_req_timeout_handler
	.xword	ufs_mq_ctx_put
	.xword	ufs_mq_hctx_get_by_req
	.xword	ufs_mq_hctx_free_in_ctx_map
	.xword	ufs_mq_tag_get
	.xword	ufs_mq_tag_put
	.xword	ufs_mq_tag_update_depth
	.xword	ufs_mq_tag_busy_iter
	.xword	ufs_mq_tag_wakeup_all
	.xword	ufs_mq_tag_sysfs_show
	.xword	ufs_mq_exec_queue
	.xword	ufs_mq_run_hw_queue
	.xword	ufs_mq_run_delay_queue
	.xword	ufs_mq_run_requeue
	.xword	ufs_mq_poll_enable
	.xword	ufs_mq_status_dump
	.xword	ufs_mq_dump_request
	.xword	hisi_ufs_mq
	.type	hisi_ufs_mq, %object
	.size	hisi_ufs_mq, 8
hisi_ufs_mq:
	.xword	hisi_ufs_mq_async_io_fifo_sched
	.type	hisi_ufs_mq_async_io_fifo_sched, %object
	.size	hisi_ufs_mq_async_io_fifo_sched, 56
hisi_ufs_mq_async_io_fifo_sched:
	.word	0
	.zero	4
	.xword	ufs_mq_async_sched_fifo_init
	.xword	ufs_mq_async_sched_fifo_insert
	.xword	ufs_mq_async_sched_fifo_seek
	.xword	ufs_mq_async_sched_fifo_requeue
	.xword	ufs_mq_async_sched_fifo_attempt_merge_bio
	.xword	ufs_mq_async_sched_fifo_is_empty
	.section	___kcrctab+blk_mq_tagset_ufs_mq_iosched_enable,"a",%progbits
	.align	3
	.type	__kcrctab_blk_mq_tagset_ufs_mq_iosched_enable, %object
	.size	__kcrctab_blk_mq_tagset_ufs_mq_iosched_enable, 8
__kcrctab_blk_mq_tagset_ufs_mq_iosched_enable:
	.xword	__crc_blk_mq_tagset_ufs_mq_iosched_enable
	.section	.rodata.str1.8,"aMS",%progbits,1
	.align	3
.LC0:
	.string	"\0013[BLK-IO]<%s> total_tags_used_count = %d total_reserved_tags_used_count = %d total_high_tags_used_count = %d \n"
.LC1:
	.string	"\0013[BLK-IO]<%s> high_prio_sync_io_inflight_count = %d sync_io_inflight_count = %d async_io_inflight_count = %d \n"
.LC2:
	.string	"\0013[BLK-IO]high_prio_sync_dispatch_list: \n"
	.zero	6
.LC3:
	.string	"\0013[BLK-IO]sync_dispatch_list: \n"
.LC4:
	.string	"\0013[BLK-IO]async_fifo_list: \n"
	.zero	3
.LC5:
	.string	"nr_tags=%u, reserved_tags=%u, high_prio_tags=%u, bits_per_word=%u\n"
	.zero	5
.LC6:
	.string	"nr_free=%u, nr_reserved=%u nr_high_prio=%u \n"
	.zero	3
.LC7:
	.string	"active_queues=%u\n"
	.zero	6
.LC8:
	.string	"\0013[BLK-IO]%s: mq_ctx_put_fn failed. err = %d \r\n"
.LC9:
	.string	"&(&sched_ds->sync_dispatch_list_lock)->rlock"
	.zero	3
.LC10:
	.string	"&(&sched_ds->async_dispatch_io_lock)->rlock"
	.zero	4
.LC11:
	.string	"sync_io_dispatch"
	.zero	7
.LC12:
	.string	"async_io_dispatch"
	.zero	6
.LC13:
	.string	"io_guard"
	.zero	7
.LC14:
	.string	"\0013[BLK-IO]blk-mq: alloc tags failed\n"
	.zero	3
.LC15:
	.string	"\0013[BLK-IO]depth = %d, reserved = %d, prio = %d \r\n"
	.zero	6
.LC16:
	.string	"\0013[BLK-IO]%s: error nomem\n"
	.bss
	.align	3
.LANCHOR0 = . + 0
	.type	hisi_blk_mq_sync_dispatch_workqueue, %object
	.size	hisi_blk_mq_sync_dispatch_workqueue, 8
hisi_blk_mq_sync_dispatch_workqueue:
	.zero	8
	.type	hisi_blk_mq_async_dispatch_workqueue, %object
	.size	hisi_blk_mq_async_dispatch_workqueue, 8
hisi_blk_mq_async_dispatch_workqueue:
	.zero	8
	.type	__key.40005, %object
	.size	__key.40005, 0
__key.40005:
	.type	__key.40006, %object
	.size	__key.40006, 0
__key.40006:
	.type	hisi_blk_io_guard_workqueue, %object
	.size	hisi_blk_io_guard_workqueue, 8
hisi_blk_io_guard_workqueue:
	.zero	8
	.type	hisi_io_guard_work, %object
	.size	hisi_io_guard_work, 96
hisi_io_guard_work:
	.zero	96
	.section	___ksymtab+blk_mq_tagset_ufs_mq_iosched_enable,"a",%progbits
	.align	3
	.type	__ksymtab_blk_mq_tagset_ufs_mq_iosched_enable, %object
	.size	__ksymtab_blk_mq_tagset_ufs_mq_iosched_enable, 16
__ksymtab_blk_mq_tagset_ufs_mq_iosched_enable:
	.xword	blk_mq_tagset_ufs_mq_iosched_enable
	.xword	__kstrtab_blk_mq_tagset_ufs_mq_iosched_enable
	.weak	__crc_blk_mq_tagset_ufs_mq_iosched_enable
	.text
.Letext0:
	.file 22 "/mnt/disk/jenkins/ci/workspace/chipset_GLK_patch/opensource/component_code/vendor/huawei/extra/build/build_script/kirin_kernel_release/kernel/include/uapi/asm-generic/int-ll64.h"
	.file 23 "/mnt/disk/jenkins/ci/workspace/chipset_GLK_patch/opensource/component_code/vendor/huawei/extra/build/build_script/kirin_kernel_release/kernel/include/asm-generic/int-ll64.h"
	.file 24 "/mnt/disk/jenkins/ci/workspace/chipset_GLK_patch/opensource/component_code/vendor/huawei/extra/build/build_script/kirin_kernel_release/kernel/include/uapi/asm-generic/posix_types.h"
	.file 25 "/mnt/disk/jenkins/ci/workspace/chipset_GLK_patch/opensource/component_code/vendor/huawei/extra/build/build_script/kirin_kernel_release/kernel/include/linux/export.h"
	.file 26 "/mnt/disk/jenkins/ci/workspace/chipset_GLK_patch/opensource/component_code/vendor/huawei/extra/build/build_script/kirin_kernel_release/kernel/include/linux/types.h"
	.file 27 "/mnt/disk/jenkins/ci/workspace/chipset_GLK_patch/opensource/component_code/vendor/huawei/extra/build/build_script/kirin_kernel_release/kernel/include/linux/restart_block.h"
	.file 28 "/mnt/disk/jenkins/ci/workspace/chipset_GLK_patch/opensource/component_code/vendor/huawei/extra/build/build_script/kirin_kernel_release/kernel/include/uapi/linux/time.h"
	.file 29 "/mnt/disk/jenkins/ci/workspace/chipset_GLK_patch/opensource/component_code/vendor/huawei/extra/build/build_script/kirin_kernel_release/kernel/arch/arm64/include/asm/compat.h"
	.file 30 "/mnt/disk/jenkins/ci/workspace/chipset_GLK_patch/opensource/component_code/vendor/huawei/extra/build/build_script/kirin_kernel_release/kernel/include/uapi/asm-generic/poll.h"
	.file 31 "/mnt/disk/jenkins/ci/workspace/chipset_GLK_patch/opensource/component_code/vendor/huawei/extra/build/build_script/kirin_kernel_release/kernel/arch/arm64/include/asm/thread_info.h"
	.file 32 "/mnt/disk/jenkins/ci/workspace/chipset_GLK_patch/opensource/component_code/vendor/huawei/extra/build/build_script/kirin_kernel_release/kernel/arch/arm64/include/uapi/asm/ptrace.h"
	.file 33 "/mnt/disk/jenkins/ci/workspace/chipset_GLK_patch/opensource/component_code/vendor/huawei/extra/build/build_script/kirin_kernel_release/kernel/arch/arm64/include/asm/spinlock_types.h"
	.file 34 "/mnt/disk/jenkins/ci/workspace/chipset_GLK_patch/opensource/component_code/vendor/huawei/extra/build/build_script/kirin_kernel_release/kernel/include/linux/spinlock_types.h"
	.file 35 "/mnt/disk/jenkins/ci/workspace/chipset_GLK_patch/opensource/component_code/vendor/huawei/extra/build/build_script/kirin_kernel_release/kernel/include/linux/rwlock_types.h"
	.file 36 "/mnt/disk/jenkins/ci/workspace/chipset_GLK_patch/opensource/component_code/vendor/huawei/extra/build/build_script/kirin_kernel_release/kernel/arch/arm64/include/asm/fpsimd.h"
	.file 37 "/mnt/disk/jenkins/ci/workspace/chipset_GLK_patch/opensource/component_code/vendor/huawei/extra/build/build_script/kirin_kernel_release/kernel/include/linux/jump_label.h"
	.file 38 "/mnt/disk/jenkins/ci/workspace/chipset_GLK_patch/opensource/component_code/vendor/huawei/extra/build/build_script/kirin_kernel_release/kernel/include/asm-generic/atomic-long.h"
	.file 39 "/mnt/disk/jenkins/ci/workspace/chipset_GLK_patch/opensource/component_code/vendor/huawei/extra/build/build_script/kirin_kernel_release/kernel/arch/arm64/include/asm/processor.h"
	.file 40 "/mnt/disk/jenkins/ci/workspace/chipset_GLK_patch/opensource/component_code/vendor/huawei/extra/build/build_script/kirin_kernel_release/kernel/include/linux/wait.h"
	.file 41 "/mnt/disk/jenkins/ci/workspace/chipset_GLK_patch/opensource/component_code/vendor/huawei/extra/build/build_script/kirin_kernel_release/kernel/include/linux/seqlock.h"
	.file 42 "/mnt/disk/jenkins/ci/workspace/chipset_GLK_patch/opensource/component_code/vendor/huawei/extra/build/build_script/kirin_kernel_release/kernel/include/linux/nodemask.h"
	.file 43 "/mnt/disk/jenkins/ci/workspace/chipset_GLK_patch/opensource/component_code/vendor/huawei/extra/build/build_script/kirin_kernel_release/kernel/include/linux/cpumask.h"
	.file 44 "/mnt/disk/jenkins/ci/workspace/chipset_GLK_patch/opensource/component_code/vendor/huawei/extra/build/build_script/kirin_kernel_release/kernel/include/linux/completion.h"
	.file 45 "/mnt/disk/jenkins/ci/workspace/chipset_GLK_patch/opensource/component_code/vendor/huawei/extra/build/build_script/kirin_kernel_release/kernel/include/linux/time64.h"
	.file 46 "/mnt/disk/jenkins/ci/workspace/chipset_GLK_patch/opensource/component_code/vendor/huawei/extra/build/build_script/kirin_kernel_release/kernel/include/linux/rbtree.h"
	.file 47 "/mnt/disk/jenkins/ci/workspace/chipset_GLK_patch/opensource/component_code/vendor/huawei/extra/build/build_script/kirin_kernel_release/kernel/include/linux/osq_lock.h"
	.file 48 "/mnt/disk/jenkins/ci/workspace/chipset_GLK_patch/opensource/component_code/vendor/huawei/extra/build/build_script/kirin_kernel_release/kernel/include/linux/rwsem.h"
	.file 49 "/mnt/disk/jenkins/ci/workspace/chipset_GLK_patch/opensource/component_code/vendor/huawei/extra/build/build_script/kirin_kernel_release/kernel/include/linux/mm_types.h"
	.file 50 "/mnt/disk/jenkins/ci/workspace/chipset_GLK_patch/opensource/component_code/vendor/huawei/extra/build/build_script/kirin_kernel_release/kernel/include/linux/lockdep.h"
	.file 51 "/mnt/disk/jenkins/ci/workspace/chipset_GLK_patch/opensource/component_code/vendor/huawei/extra/build/build_script/kirin_kernel_release/kernel/include/linux/uprobes.h"
	.file 52 "/mnt/disk/jenkins/ci/workspace/chipset_GLK_patch/opensource/component_code/vendor/huawei/extra/build/build_script/kirin_kernel_release/kernel/include/linux/timer.h"
	.file 53 "/mnt/disk/jenkins/ci/workspace/chipset_GLK_patch/opensource/component_code/vendor/huawei/extra/build/build_script/kirin_kernel_release/kernel/include/linux/uidgid.h"
	.file 54 "/mnt/disk/jenkins/ci/workspace/chipset_GLK_patch/opensource/component_code/vendor/huawei/extra/build/build_script/kirin_kernel_release/kernel/include/linux/sysctl.h"
	.file 55 "/mnt/disk/jenkins/ci/workspace/chipset_GLK_patch/opensource/component_code/vendor/huawei/extra/build/build_script/kirin_kernel_release/kernel/include/linux/stddef.h"
	.file 56 "/mnt/disk/jenkins/ci/workspace/chipset_GLK_patch/opensource/component_code/vendor/huawei/extra/build/build_script/kirin_kernel_release/kernel/arch/arm64/include/asm/pgtable-types.h"
	.file 57 "/mnt/disk/jenkins/ci/workspace/chipset_GLK_patch/opensource/component_code/vendor/huawei/extra/build/build_script/kirin_kernel_release/kernel/arch/arm64/include/asm/page.h"
	.file 58 "/mnt/disk/jenkins/ci/workspace/chipset_GLK_patch/opensource/component_code/vendor/huawei/extra/build/build_script/kirin_kernel_release/kernel/include/linux/pfn.h"
	.file 59 "/mnt/disk/jenkins/ci/workspace/chipset_GLK_patch/opensource/component_code/vendor/huawei/extra/build/build_script/kirin_kernel_release/kernel/include/linux/llist.h"
	.file 60 "/mnt/disk/jenkins/ci/workspace/chipset_GLK_patch/opensource/component_code/vendor/huawei/extra/build/build_script/kirin_kernel_release/kernel/include/linux/smp.h"
	.file 61 "/mnt/disk/jenkins/ci/workspace/chipset_GLK_patch/opensource/component_code/vendor/huawei/extra/build/build_script/kirin_kernel_release/kernel/arch/arm64/include/asm/smp.h"
	.file 62 "/mnt/disk/jenkins/ci/workspace/chipset_GLK_patch/opensource/component_code/vendor/huawei/extra/build/build_script/kirin_kernel_release/kernel/arch/arm64/include/asm/mmu.h"
	.file 63 "/mnt/disk/jenkins/ci/workspace/chipset_GLK_patch/opensource/component_code/vendor/huawei/extra/build/build_script/kirin_kernel_release/kernel/include/linux/fs.h"
	.file 64 "/mnt/disk/jenkins/ci/workspace/chipset_GLK_patch/opensource/component_code/vendor/huawei/extra/build/build_script/kirin_kernel_release/kernel/include/linux/rmap.h"
	.file 65 "/mnt/disk/jenkins/ci/workspace/chipset_GLK_patch/opensource/component_code/vendor/huawei/extra/build/build_script/kirin_kernel_release/kernel/include/linux/mm.h"
	.file 66 "/mnt/disk/jenkins/ci/workspace/chipset_GLK_patch/opensource/component_code/vendor/huawei/extra/build/build_script/kirin_kernel_release/kernel/include/linux/user_namespace.h"
	.file 67 "/mnt/disk/jenkins/ci/workspace/chipset_GLK_patch/opensource/component_code/vendor/huawei/extra/build/build_script/kirin_kernel_release/kernel/include/linux/mmzone.h"
	.file 68 "/mnt/disk/jenkins/ci/workspace/chipset_GLK_patch/opensource/component_code/vendor/huawei/extra/build/build_script/kirin_kernel_release/kernel/include/linux/mutex.h"
	.file 69 "/mnt/disk/jenkins/ci/workspace/chipset_GLK_patch/opensource/component_code/vendor/huawei/extra/build/build_script/kirin_kernel_release/kernel/include/linux/notifier.h"
	.file 70 "/mnt/disk/jenkins/ci/workspace/chipset_GLK_patch/opensource/component_code/vendor/huawei/extra/build/build_script/kirin_kernel_release/kernel/include/linux/percpu-refcount.h"
	.file 71 "/mnt/disk/jenkins/ci/workspace/chipset_GLK_patch/opensource/component_code/vendor/huawei/extra/build/build_script/kirin_kernel_release/kernel/include/linux/shrinker.h"
	.file 72 "/mnt/disk/jenkins/ci/workspace/chipset_GLK_patch/opensource/component_code/vendor/huawei/extra/build/build_script/kirin_kernel_release/kernel/include/uapi/linux/resource.h"
	.file 73 "/mnt/disk/jenkins/ci/workspace/chipset_GLK_patch/opensource/component_code/vendor/huawei/extra/build/build_script/kirin_kernel_release/kernel/include/linux/tracepoint-defs.h"
	.file 74 "/mnt/disk/jenkins/ci/workspace/chipset_GLK_patch/opensource/component_code/vendor/huawei/extra/build/build_script/kirin_kernel_release/kernel/include/linux/vmstat.h"
	.file 75 "/mnt/disk/jenkins/ci/workspace/chipset_GLK_patch/opensource/component_code/vendor/huawei/extra/build/build_script/kirin_kernel_release/kernel/include/linux/capability.h"
	.file 76 "/mnt/disk/jenkins/ci/workspace/chipset_GLK_patch/opensource/component_code/vendor/huawei/extra/build/build_script/kirin_kernel_release/kernel/include/linux/plist.h"
	.file 77 "/mnt/disk/jenkins/ci/workspace/chipset_GLK_patch/opensource/component_code/vendor/huawei/extra/build/build_script/kirin_kernel_release/kernel/include/asm-generic/cputime_jiffies.h"
	.file 78 "/mnt/disk/jenkins/ci/workspace/chipset_GLK_patch/opensource/component_code/vendor/huawei/extra/build/build_script/kirin_kernel_release/kernel/include/uapi/asm-generic/signal.h"
	.file 79 "/mnt/disk/jenkins/ci/workspace/chipset_GLK_patch/opensource/component_code/vendor/huawei/extra/build/build_script/kirin_kernel_release/kernel/include/uapi/asm-generic/signal-defs.h"
	.file 80 "/mnt/disk/jenkins/ci/workspace/chipset_GLK_patch/opensource/component_code/vendor/huawei/extra/build/build_script/kirin_kernel_release/kernel/include/uapi/asm-generic/siginfo.h"
	.file 81 "/mnt/disk/jenkins/ci/workspace/chipset_GLK_patch/opensource/component_code/vendor/huawei/extra/build/build_script/kirin_kernel_release/kernel/include/linux/signal.h"
	.file 82 "/mnt/disk/jenkins/ci/workspace/chipset_GLK_patch/opensource/component_code/vendor/huawei/extra/build/build_script/kirin_kernel_release/kernel/include/linux/pid.h"
	.file 83 "/mnt/disk/jenkins/ci/workspace/chipset_GLK_patch/opensource/component_code/vendor/huawei/extra/build/build_script/kirin_kernel_release/kernel/include/linux/seccomp.h"
	.file 84 "/mnt/disk/jenkins/ci/workspace/chipset_GLK_patch/opensource/component_code/vendor/huawei/extra/build/build_script/kirin_kernel_release/kernel/include/linux/timerqueue.h"
	.file 85 "/mnt/disk/jenkins/ci/workspace/chipset_GLK_patch/opensource/component_code/vendor/huawei/extra/build/build_script/kirin_kernel_release/kernel/include/linux/hrtimer.h"
	.file 86 "/mnt/disk/jenkins/ci/workspace/chipset_GLK_patch/opensource/component_code/vendor/huawei/extra/build/build_script/kirin_kernel_release/kernel/include/linux/task_io_accounting.h"
	.file 87 "/mnt/disk/jenkins/ci/workspace/chipset_GLK_patch/opensource/component_code/vendor/huawei/extra/build/build_script/kirin_kernel_release/kernel/include/linux/assoc_array.h"
	.file 88 "/mnt/disk/jenkins/ci/workspace/chipset_GLK_patch/opensource/component_code/vendor/huawei/extra/build/build_script/kirin_kernel_release/kernel/include/linux/key.h"
	.file 89 "/mnt/disk/jenkins/ci/workspace/chipset_GLK_patch/opensource/component_code/vendor/huawei/extra/build/build_script/kirin_kernel_release/kernel/include/linux/cred.h"
	.file 90 "/mnt/disk/jenkins/ci/workspace/chipset_GLK_patch/opensource/component_code/vendor/huawei/extra/build/build_script/kirin_kernel_release/kernel/include/linux/idr.h"
	.file 91 "/mnt/disk/jenkins/ci/workspace/chipset_GLK_patch/opensource/component_code/vendor/huawei/extra/build/build_script/kirin_kernel_release/kernel/include/linux/rcu_sync.h"
	.file 92 "/mnt/disk/jenkins/ci/workspace/chipset_GLK_patch/opensource/component_code/vendor/huawei/extra/build/build_script/kirin_kernel_release/kernel/include/linux/percpu-rwsem.h"
	.file 93 "/mnt/disk/jenkins/ci/workspace/chipset_GLK_patch/opensource/component_code/vendor/huawei/extra/build/build_script/kirin_kernel_release/kernel/include/linux/bpf-cgroup.h"
	.file 94 "/mnt/disk/jenkins/ci/workspace/chipset_GLK_patch/opensource/component_code/vendor/huawei/extra/build/build_script/kirin_kernel_release/kernel/include/linux/cgroup-defs.h"
	.file 95 "/mnt/disk/jenkins/ci/workspace/chipset_GLK_patch/opensource/component_code/vendor/huawei/extra/build/build_script/kirin_kernel_release/kernel/include/linux/kernfs.h"
	.file 96 "/mnt/disk/jenkins/ci/workspace/chipset_GLK_patch/opensource/component_code/vendor/huawei/extra/build/build_script/kirin_kernel_release/kernel/include/linux/seq_file.h"
	.file 97 "/mnt/disk/jenkins/ci/workspace/chipset_GLK_patch/opensource/component_code/vendor/huawei/extra/build/build_script/kirin_kernel_release/kernel/include/uapi/linux/taskstats.h"
	.file 98 "/mnt/disk/jenkins/ci/workspace/chipset_GLK_patch/opensource/component_code/vendor/huawei/extra/build/build_script/kirin_kernel_release/kernel/include/linux/nsproxy.h"
	.file 99 "/mnt/disk/jenkins/ci/workspace/chipset_GLK_patch/opensource/component_code/vendor/huawei/extra/build/build_script/kirin_kernel_release/kernel/include/linux/swap.h"
	.file 100 "/mnt/disk/jenkins/ci/workspace/chipset_GLK_patch/opensource/component_code/vendor/huawei/extra/build/build_script/kirin_kernel_release/kernel/include/linux/backing-dev-defs.h"
	.file 101 "/mnt/disk/jenkins/ci/workspace/chipset_GLK_patch/opensource/component_code/vendor/huawei/extra/build/build_script/kirin_kernel_release/kernel/include/linux/iocontext.h"
	.file 102 "/mnt/disk/jenkins/ci/workspace/chipset_GLK_patch/opensource/component_code/vendor/huawei/extra/build/build_script/kirin_kernel_release/kernel/include/linux/compat.h"
	.file 103 "/mnt/disk/jenkins/ci/workspace/chipset_GLK_patch/opensource/component_code/vendor/huawei/extra/build/build_script/kirin_kernel_release/kernel/include/linux/list_bl.h"
	.file 104 "/mnt/disk/jenkins/ci/workspace/chipset_GLK_patch/opensource/component_code/vendor/huawei/extra/build/build_script/kirin_kernel_release/kernel/include/linux/lockref.h"
	.file 105 "/mnt/disk/jenkins/ci/workspace/chipset_GLK_patch/opensource/component_code/vendor/huawei/extra/build/build_script/kirin_kernel_release/kernel/include/linux/dcache.h"
	.file 106 "/mnt/disk/jenkins/ci/workspace/chipset_GLK_patch/opensource/component_code/vendor/huawei/extra/build/build_script/kirin_kernel_release/kernel/include/linux/path.h"
	.file 107 "/mnt/disk/jenkins/ci/workspace/chipset_GLK_patch/opensource/component_code/vendor/huawei/extra/build/build_script/kirin_kernel_release/kernel/include/linux/stat.h"
	.file 108 "/mnt/disk/jenkins/ci/workspace/chipset_GLK_patch/opensource/component_code/vendor/huawei/extra/build/build_script/kirin_kernel_release/kernel/include/linux/list_lru.h"
	.file 109 "/mnt/disk/jenkins/ci/workspace/chipset_GLK_patch/opensource/component_code/vendor/huawei/extra/build/build_script/kirin_kernel_release/kernel/include/linux/radix-tree.h"
	.file 110 "/mnt/disk/jenkins/ci/workspace/chipset_GLK_patch/opensource/component_code/vendor/huawei/extra/build/build_script/kirin_kernel_release/kernel/include/uapi/linux/fiemap.h"
	.file 111 "/mnt/disk/jenkins/ci/workspace/chipset_GLK_patch/opensource/component_code/vendor/huawei/extra/build/build_script/kirin_kernel_release/kernel/include/linux/migrate_mode.h"
	.file 112 "/mnt/disk/jenkins/ci/workspace/chipset_GLK_patch/opensource/component_code/vendor/huawei/extra/build/build_script/kirin_kernel_release/kernel/include/linux/bvec.h"
	.file 113 "/mnt/disk/jenkins/ci/workspace/chipset_GLK_patch/opensource/component_code/vendor/huawei/extra/build/build_script/kirin_kernel_release/kernel/include/linux/delayed_call.h"
	.file 114 "/mnt/disk/jenkins/ci/workspace/chipset_GLK_patch/opensource/component_code/vendor/huawei/extra/build/build_script/kirin_kernel_release/kernel/include/linux/percpu_counter.h"
	.file 115 "/mnt/disk/jenkins/ci/workspace/chipset_GLK_patch/opensource/component_code/vendor/huawei/extra/build/build_script/kirin_kernel_release/kernel/include/linux/quota.h"
	.file 116 "/mnt/disk/jenkins/ci/workspace/chipset_GLK_patch/opensource/component_code/vendor/huawei/extra/build/build_script/kirin_kernel_release/kernel/include/linux/projid.h"
	.file 117 "/mnt/disk/jenkins/ci/workspace/chipset_GLK_patch/opensource/component_code/vendor/huawei/extra/build/build_script/kirin_kernel_release/kernel/include/linux/writeback.h"
	.file 118 "/mnt/disk/jenkins/ci/workspace/chipset_GLK_patch/opensource/component_code/vendor/huawei/extra/build/build_script/kirin_kernel_release/kernel/include/linux/uio.h"
	.file 119 "/mnt/disk/jenkins/ci/workspace/chipset_GLK_patch/opensource/component_code/vendor/huawei/extra/build/build_script/kirin_kernel_release/kernel/include/linux/genhd.h"
	.file 120 "/mnt/disk/jenkins/ci/workspace/chipset_GLK_patch/opensource/component_code/vendor/huawei/extra/build/build_script/kirin_kernel_release/kernel/include/linux/nfs_fs_i.h"
	.file 121 "/mnt/disk/jenkins/ci/workspace/chipset_GLK_patch/opensource/component_code/vendor/huawei/extra/build/build_script/kirin_kernel_release/kernel/include/linux/poll.h"
	.file 122 "/mnt/disk/jenkins/ci/workspace/chipset_GLK_patch/opensource/component_code/vendor/huawei/extra/build/build_script/kirin_kernel_release/kernel/include/linux/cgroup.h"
	.file 123 "/mnt/disk/jenkins/ci/workspace/chipset_GLK_patch/opensource/component_code/vendor/huawei/extra/build/build_script/kirin_kernel_release/kernel/include/linux/ns_common.h"
	.file 124 "/mnt/disk/jenkins/ci/workspace/chipset_GLK_patch/opensource/component_code/vendor/huawei/extra/build/build_script/kirin_kernel_release/kernel/include/linux/kref.h"
	.file 125 "/mnt/disk/jenkins/ci/workspace/chipset_GLK_patch/opensource/component_code/vendor/huawei/extra/build/build_script/kirin_kernel_release/kernel/include/linux/flex_proportions.h"
	.file 126 "/mnt/disk/jenkins/ci/workspace/chipset_GLK_patch/opensource/component_code/vendor/huawei/extra/build/build_script/kirin_kernel_release/kernel/include/linux/device.h"
	.file 127 "/mnt/disk/jenkins/ci/workspace/chipset_GLK_patch/opensource/component_code/vendor/huawei/extra/build/build_script/kirin_kernel_release/kernel/include/linux/kobject_ns.h"
	.file 128 "/mnt/disk/jenkins/ci/workspace/chipset_GLK_patch/opensource/component_code/vendor/huawei/extra/build/build_script/kirin_kernel_release/kernel/include/linux/sysfs.h"
	.file 129 "/mnt/disk/jenkins/ci/workspace/chipset_GLK_patch/opensource/component_code/vendor/huawei/extra/build/build_script/kirin_kernel_release/kernel/include/linux/kobject.h"
	.file 130 "/mnt/disk/jenkins/ci/workspace/chipset_GLK_patch/opensource/component_code/vendor/huawei/extra/build/build_script/kirin_kernel_release/kernel/include/linux/klist.h"
	.file 131 "/mnt/disk/jenkins/ci/workspace/chipset_GLK_patch/opensource/component_code/vendor/huawei/extra/build/build_script/kirin_kernel_release/kernel/include/linux/pinctrl/devinfo.h"
	.file 132 "/mnt/disk/jenkins/ci/workspace/chipset_GLK_patch/opensource/component_code/vendor/huawei/extra/build/build_script/kirin_kernel_release/kernel/include/linux/pm.h"
	.file 133 "/mnt/disk/jenkins/ci/workspace/chipset_GLK_patch/opensource/component_code/vendor/huawei/extra/build/build_script/kirin_kernel_release/kernel/include/linux/pm_wakeup.h"
	.file 134 "/mnt/disk/jenkins/ci/workspace/chipset_GLK_patch/opensource/component_code/vendor/huawei/extra/build/build_script/kirin_kernel_release/kernel/arch/arm64/include/asm/device.h"
	.file 135 "/mnt/disk/jenkins/ci/workspace/chipset_GLK_patch/opensource/component_code/vendor/huawei/extra/build/build_script/kirin_kernel_release/kernel/include/linux/mempool.h"
	.file 136 "/mnt/disk/jenkins/ci/workspace/chipset_GLK_patch/opensource/component_code/vendor/huawei/extra/build/build_script/kirin_kernel_release/kernel/include/linux/bsg.h"
	.file 137 "/mnt/disk/jenkins/ci/workspace/chipset_GLK_patch/opensource/component_code/vendor/huawei/extra/build/build_script/kirin_kernel_release/kernel/include/linux/elevator.h"
	.file 138 "/mnt/disk/jenkins/ci/workspace/chipset_GLK_patch/opensource/component_code/vendor/huawei/extra/build/build_script/kirin_kernel_release/kernel/include/linux/blk-mq.h"
	.file 139 "/mnt/disk/jenkins/ci/workspace/chipset_GLK_patch/opensource/component_code/vendor/huawei/extra/build/build_script/kirin_kernel_release/kernel/block/hisi-blk.h"
	.file 140 "/mnt/disk/jenkins/ci/workspace/chipset_GLK_patch/opensource/component_code/vendor/huawei/extra/build/build_script/kirin_kernel_release/kernel/block/blk-mq-tag.h"
	.file 141 "/mnt/disk/jenkins/ci/workspace/chipset_GLK_patch/opensource/component_code/vendor/huawei/extra/build/build_script/kirin_kernel_release/kernel/include/linux/interrupt.h"
	.file 142 "/mnt/disk/jenkins/ci/workspace/chipset_GLK_patch/opensource/component_code/vendor/huawei/extra/build/build_script/kirin_kernel_release/kernel/include/uapi/linux/uio.h"
	.file 143 "/mnt/disk/jenkins/ci/workspace/chipset_GLK_patch/opensource/component_code/vendor/huawei/extra/build/build_script/kirin_kernel_release/kernel/include/asm-generic/bitops/builtin-__fls.h"
	.file 144 "/mnt/disk/jenkins/ci/workspace/chipset_GLK_patch/opensource/component_code/vendor/huawei/extra/build/build_script/kirin_kernel_release/kernel/include/asm-generic/bitops/fls64.h"
	.file 145 "/mnt/disk/jenkins/ci/workspace/chipset_GLK_patch/opensource/component_code/vendor/huawei/extra/build/build_script/kirin_kernel_release/kernel/include/linux/thread_info.h"
	.file 146 "/mnt/disk/jenkins/ci/workspace/chipset_GLK_patch/opensource/component_code/vendor/huawei/extra/build/build_script/kirin_kernel_release/kernel/include/linux/jiffies.h"
	.file 147 "/mnt/disk/jenkins/ci/workspace/chipset_GLK_patch/opensource/component_code/vendor/huawei/extra/build/build_script/kirin_kernel_release/kernel/include/linux/log2.h"
	.file 148 "/mnt/disk/jenkins/ci/workspace/chipset_GLK_patch/opensource/component_code/vendor/huawei/extra/build/build_script/kirin_kernel_release/kernel/include/asm-generic/getorder.h"
	.file 149 "/mnt/disk/jenkins/ci/workspace/chipset_GLK_patch/opensource/component_code/vendor/huawei/extra/build/build_script/kirin_kernel_release/kernel/arch/arm64/include/asm/cmpxchg.h"
	.file 150 "/mnt/disk/jenkins/ci/workspace/chipset_GLK_patch/opensource/component_code/vendor/huawei/extra/build/build_script/kirin_kernel_release/kernel/arch/arm64/include/asm/cachetype.h"
	.file 151 "/mnt/disk/jenkins/ci/workspace/chipset_GLK_patch/opensource/component_code/vendor/huawei/extra/build/build_script/kirin_kernel_release/kernel/include/linux/printk.h"
	.file 152 "/mnt/disk/jenkins/ci/workspace/chipset_GLK_patch/opensource/component_code/vendor/huawei/extra/build/build_script/kirin_kernel_release/kernel/include/linux/kernel.h"
	.file 153 "/mnt/disk/jenkins/ci/workspace/chipset_GLK_patch/opensource/component_code/vendor/huawei/extra/build/build_script/kirin_kernel_release/kernel/arch/arm64/include/asm/stack_pointer.h"
	.file 154 "/mnt/disk/jenkins/ci/workspace/chipset_GLK_patch/opensource/component_code/vendor/huawei/extra/build/build_script/kirin_kernel_release/kernel/arch/arm64/include/asm/hwcap.h"
	.file 155 "/mnt/disk/jenkins/ci/workspace/chipset_GLK_patch/opensource/component_code/vendor/huawei/extra/build/build_script/kirin_kernel_release/kernel/arch/arm64/include/asm/cpufeature.h"
	.file 156 "/mnt/disk/jenkins/ci/workspace/chipset_GLK_patch/opensource/component_code/vendor/huawei/extra/build/build_script/kirin_kernel_release/kernel/arch/arm64/include/asm/virt.h"
	.file 157 "/mnt/disk/jenkins/ci/workspace/chipset_GLK_patch/opensource/component_code/vendor/huawei/extra/build/build_script/kirin_kernel_release/kernel/include/linux/highuid.h"
	.file 158 "/mnt/disk/jenkins/ci/workspace/chipset_GLK_patch/opensource/component_code/vendor/huawei/extra/build/build_script/kirin_kernel_release/kernel/arch/arm64/include/asm/memory.h"
	.file 159 "/mnt/disk/jenkins/ci/workspace/chipset_GLK_patch/opensource/component_code/vendor/huawei/extra/build/build_script/kirin_kernel_release/kernel/include/asm-generic/percpu.h"
	.file 160 "/mnt/disk/jenkins/ci/workspace/chipset_GLK_patch/opensource/component_code/vendor/huawei/extra/build/build_script/kirin_kernel_release/kernel/include/linux/debug_locks.h"
	.file 161 "/mnt/disk/jenkins/ci/workspace/chipset_GLK_patch/opensource/component_code/vendor/huawei/extra/build/build_script/kirin_kernel_release/kernel/include/asm-generic/pgtable.h"
	.file 162 "/mnt/disk/jenkins/ci/workspace/chipset_GLK_patch/opensource/component_code/vendor/huawei/extra/build/build_script/kirin_kernel_release/kernel/arch/arm64/include/asm/irq.h"
	.file 163 "/mnt/disk/jenkins/ci/workspace/chipset_GLK_patch/opensource/component_code/vendor/huawei/extra/build/build_script/kirin_kernel_release/kernel/arch/arm64/include/asm/hardirq.h"
	.file 164 "/mnt/disk/jenkins/ci/workspace/chipset_GLK_patch/opensource/component_code/vendor/huawei/extra/build/build_script/kirin_kernel_release/kernel/include/trace/events/block.h"
	.file 165 "/mnt/disk/jenkins/ci/workspace/chipset_GLK_patch/opensource/component_code/vendor/huawei/extra/build/build_script/kirin_kernel_release/kernel/include/linux/spinlock_api_smp.h"
	.file 166 "/mnt/disk/jenkins/ci/workspace/chipset_GLK_patch/opensource/component_code/vendor/huawei/extra/build/build_script/kirin_kernel_release/kernel/include/asm-generic/bitops/find.h"
	.file 167 "/mnt/disk/jenkins/ci/workspace/chipset_GLK_patch/opensource/component_code/vendor/huawei/extra/build/build_script/kirin_kernel_release/kernel/arch/arm64/include/asm/bitops.h"
	.file 168 "/mnt/disk/jenkins/ci/workspace/chipset_GLK_patch/opensource/component_code/vendor/huawei/extra/build/build_script/kirin_kernel_release/kernel/include/linux/percpu.h"
	.file 169 "/mnt/disk/jenkins/ci/workspace/chipset_GLK_patch/opensource/component_code/vendor/huawei/extra/build/build_script/kirin_kernel_release/kernel/include/linux/timekeeping.h"